Certificate Request:
    Data:
        Version: 0 (0x0)
        Subject: C=FR, O=NodeOPCUA, CN=NodeOPCUA
        Subject Public Key Info:
            Public Key Algorithm: rsaEncryption
                Public-Key: (1024 bit)
                Modulus:
                    00:de:b7:68:9f:cc:c9:82:50:ac:2b:35:a6:ca:b8:
                    01:84:25:d2:dc:fe:3a:7b:54:9f:96:6d:d0:b7:77:
                    48:a4:e4:5a:b1:c0:f4:80:a7:22:01:4a:3e:0c:c8:
                    68:e3:19:c3:67:42:c6:74:ee:52:dc:83:21:91:2b:
                    b9:0d:71:8e:6d:ce:63:bc:47:58:d0:98:28:2f:64:
                    14:8f:2c:07:6b:c0:33:a8:28:35:b0:51:cc:7e:c7:
                    a1:3d:2c:12:43:31:a9:d6:46:03:46:12:39:94:92:
                    e8:d1:91:06:58:8c:7e:38:1e:1c:2b:fc:18:99:a1:
                    da:b6:05:6a:e2:15:a5:73:b7
                Exponent: 65537 (0x10001)
        Attributes:
        Requested Extensions:
            X509v3 Basic Constraints: 
                CA:FALSE
            X509v3 Key Usage: critical
                Certificate Sign, CRL Sign
            X509v3 Subject Alternative Name: 
                URI:undefined, DNS:, DNS:, DNS:, DNS:, DNS:
    Signature Algorithm: sha256WithRSAEncryption
         b3:68:95:fa:a3:86:7e:c5:36:1d:47:38:df:b0:bf:73:db:03:
         32:71:b3:df:2d:4f:70:68:bf:00:f4:44:46:cb:c5:6b:60:57:
         47:a4:43:0c:ba:eb:8f:63:35:fd:bb:ec:1a:97:d8:da:b4:0d:
         29:e4:a4:61:4c:94:60:85:18:97:4d:2f:21:f2:9a:3c:05:c5:
         bb:e6:a7:f5:c9:60:e2:68:77:25:dc:8f:60:d6:eb:ee:84:97:
         d6:c5:e2:3f:a8:55:bd:3e:48:85:15:d1:90:ea:9f:d3:28:b9:
         be:a5:53:12:df:56:3e:89:8c:94:f4:80:0c:e4:10:b1:d1:6d:
         fd:11
-----BEGIN CERTIFICATE REQUEST-----
MIIBwTCCASoCAQAwNTELMAkGA1UEBhMCRlIxEjAQBgNVBAoMCU5vZGVPUENVQTES
MBAGA1UEAwwJTm9kZU9QQ1VBMIGfMA0GCSqGSIb3DQEBAQUAA4GNADCBiQKBgQDe
t2ifzMmCUKwrNabKuAGEJdLc/jp7VJ+WbdC3d0ik5FqxwPSApyIBSj4MyGjjGcNn
QsZ07lLcgyGRK7kNcY5tzmO8R1jQmCgvZBSPLAdrwDOoKDWwUcx+x6E9LBJDManW
RgNGEjmUkujRkQZYjH44Hhwr/BiZodq2BWriFaVztwIDAQABoEwwSgYJKoZIhvcN
AQkOMT0wOzAJBgNVHRMEAjAAMA4GA1UdDwEB/wQEAwIBBjAeBgNVHREEFzAVhgl1
bmRlZmluZWSCAIIAggCCAIIAMA0GCSqGSIb3DQEBCwUAA4GBALNolfqjhn7FNh1H
ON+wv3PbAzJxs98tT3BovwD0REbLxWtgV0ekQwy6649jNf277BqX2Nq0DSnkpGFM
lGCFGJdNLyHymjwFxbvmp/XJYOJodyXcj2DW6+6El9bF4j+oVb0+SIUV0ZDqn9Mo
ub6lUxLfVj6JjJT0gAzkELHRbf0R
-----END CERTIFICATE REQUEST-----
