Certificate:
    Data:
        Version: 3 (0x2)
        Serial Number: 4098 (0x1002)
    Signature Algorithm: sha256WithRSAEncryption
        Issuer: C=FR, ST=IDF, L=Paris, O=Local NODE-OPCUA Certificate Authority, CN=NodeOPCUA
        Validity
            Not Before: Dec 29 20:46:09 2016 GMT
            Not After : Dec 29 20:46:09 2017 GMT
        Subject: C=FR, O=NodeOPCUA, CN=NodeOPCUA
        Subject Public Key Info:
            Public Key Algorithm: rsaEncryption
                Public-Key: (2048 bit)
                Modulus:
                    00:c9:41:e1:54:73:6f:b0:45:5b:c8:eb:25:6a:fc:
                    55:53:b4:96:ff:7f:52:ac:7b:6f:df:9f:ac:2d:fe:
                    e9:f6:fb:80:74:91:85:4d:01:31:65:0a:cd:2e:a2:
                    f7:56:26:26:cd:54:d3:0a:d9:7b:52:28:c5:8f:a4:
                    b2:e6:5a:10:34:53:fb:22:eb:68:4d:97:62:9b:56:
                    9a:41:35:5c:bc:d8:56:82:71:1a:39:b3:8b:c8:f2:
                    58:20:d9:12:d6:81:00:bf:ad:6c:f0:25:02:83:f0:
                    2e:b0:bc:4f:66:65:a0:39:13:a5:1a:8f:d7:ff:6c:
                    9e:b2:87:6f:a6:d1:c3:65:9a:5c:68:b5:65:62:31:
                    7b:8c:19:2f:0c:8a:0d:cf:7b:25:3b:eb:f5:ae:78:
                    1c:cc:4f:90:ef:cd:e6:70:49:72:d2:60:a2:44:24:
                    66:8a:c6:66:5c:5e:ce:ce:7e:d5:d2:dd:31:4d:19:
                    6d:18:0b:d5:9c:74:a3:e7:aa:9e:5a:d1:7c:d9:82:
                    00:72:e6:98:7f:a7:2c:52:da:90:89:4a:da:18:3f:
                    a9:0a:b9:4d:da:76:e5:78:13:3d:2b:04:90:c7:73:
                    39:7b:b4:69:04:a1:d8:89:d6:7f:01:4e:63:ed:f2:
                    fd:46:ab:2f:b3:df:bf:1f:3c:14:81:f9:2b:3d:fa:
                    86:87
                Exponent: 65537 (0x10001)
        X509v3 extensions:
            X509v3 Basic Constraints: critical
                CA:FALSE
            X509v3 Subject Key Identifier: 
                70:22:C9:B7:4F:17:1E:8B:18:82:82:E1:EC:00:88:F9:97:81:37:52
            X509v3 Authority Key Identifier: 
                keyid:05:4E:62:F0:DE:FF:5B:94:12:4F:3D:C6:75:65:74:CB:D6:B5:98:37
                DirName:/C=FR/ST=IDF/L=Paris/O=Local NODE-OPCUA Certificate Authority/CN=NodeOPCUA
                serial:B9:04:BD:F8:25:D1:04:6E

            X509v3 Subject Alternative Name: 
                URI:urn:giless-MBP.home:NodeOPCUA-Client, DNS:localhost, DNS:giless-MBP.home
            Netscape Comment: 
                OpenSSL Generated Certificate
            X509v3 Key Usage: critical
                Digital Signature, Non Repudiation, Key Encipherment, Data Encipherment, Key Agreement, Certificate Sign
            X509v3 Extended Key Usage: critical
                TLS Web Server Authentication, TLS Web Client Authentication
    Signature Algorithm: sha256WithRSAEncryption
         08:86:f2:1b:82:70:c7:00:df:ae:fc:1c:f8:3d:2d:31:42:19:
         3a:46:b7:4a:eb:49:03:3b:ae:77:ef:6e:3c:16:82:fa:a3:83:
         7c:97:1f:da:4f:f1:6c:c5:d9:eb:33:54:db:76:e6:40:4e:ed:
         01:ae:85:4c:4e:d0:28:e1:d4:c2:1d:7c:0c:ad:c4:b6:01:31:
         e8:7d:e2:f4:79:75:56:24:39:c0:7e:3c:bc:89:33:6c:89:4d:
         43:dd:96:f3:f6:8f:26:bb:fc:b6:29:83:11:0f:77:d3:ce:fc:
         34:1c:6a:8e:41:e6:90:08:e2:79:f5:4f:f0:81:7f:df:f6:de:
         3c:73:f8:bb:de:4c:82:91:25:79:1a:25:59:44:cb:3e:7a:44:
         8a:c5:e7:ce:e3:78:00:13:44:f6:71:2e:aa:86:e6:c1:1c:2d:
         c6:af:29:10:71:43:16:68:39:08:88:42:c9:ae:b0:b0:5a:36:
         73:f5:62:c8:6a:c6:da:29:a5:9c:46:62:3f:6e:b0:f6:cd:cd:
         ba:59:71:73:76:a3:36:cd:5b:78:6b:50:14:4c:b8:bf:89:b7:
         bf:95:bc:e5:37:1d:98:26:ed:db:09:3f:75:ca:2c:e7:f7:d3:
         94:92:89:58:65:ef:af:73:17:dd:17:62:72:9b:bd:11:cb:5e:
         37:0c:c4:e8
-----BEGIN CERTIFICATE-----
MIIEqjCCA5KgAwIBAgICEAIwDQYJKoZIhvcNAQELBQAwcDELMAkGA1UEBhMCRlIx
DDAKBgNVBAgTA0lERjEOMAwGA1UEBxMFUGFyaXMxLzAtBgNVBAoTJkxvY2FsIE5P
REUtT1BDVUEgQ2VydGlmaWNhdGUgQXV0aG9yaXR5MRIwEAYDVQQDEwlOb2RlT1BD
VUEwIhgPMjAxNjEyMjkyMDQ2MDlaGA8yMDE3MTIyOTIwNDYwOVowNTELMAkGA1UE
BhMCRlIxEjAQBgNVBAoMCU5vZGVPUENVQTESMBAGA1UEAwwJTm9kZU9QQ1VBMIIB
IjANBgkqhkiG9w0BAQEFAAOCAQ8AMIIBCgKCAQEAyUHhVHNvsEVbyOslavxVU7SW
/39SrHtv35+sLf7p9vuAdJGFTQExZQrNLqL3ViYmzVTTCtl7UijFj6Sy5loQNFP7
IutoTZdim1aaQTVcvNhWgnEaObOLyPJYINkS1oEAv61s8CUCg/AusLxPZmWgOROl
Go/X/2yesodvptHDZZpcaLVlYjF7jBkvDIoNz3slO+v1rngczE+Q783mcEly0mCi
RCRmisZmXF7Ozn7V0t0xTRltGAvVnHSj56qeWtF82YIAcuaYf6csUtqQiUraGD+p
CrlN2nbleBM9KwSQx3M5e7RpBKHYidZ/AU5j7fL9Rqsvs9+/HzwUgfkrPfqGhwID
AQABo4IBgzCCAX8wDAYDVR0TAQH/BAIwADAdBgNVHQ4EFgQUcCLJt08XHosYgoLh
7ACI+ZeBN1IwgaIGA1UdIwSBmjCBl4AUBU5i8N7/W5QSTz3GdWV0y9a1mDehdKRy
MHAxCzAJBgNVBAYTAkZSMQwwCgYDVQQIEwNJREYxDjAMBgNVBAcTBVBhcmlzMS8w
LQYDVQQKEyZMb2NhbCBOT0RFLU9QQ1VBIENlcnRpZmljYXRlIEF1dGhvcml0eTES
MBAGA1UEAxMJTm9kZU9QQ1VBggkAuQS9+CXRBG4wSwYDVR0RBEQwQoYkdXJuOmdp
bGVzcy1NQlAuaG9tZTpOb2RlT1BDVUEtQ2xpZW50gglsb2NhbGhvc3SCD2dpbGVz
cy1NQlAuaG9tZTAsBglghkgBhvhCAQ0EHxYdT3BlblNTTCBHZW5lcmF0ZWQgQ2Vy
dGlmaWNhdGUwDgYDVR0PAQH/BAQDAgL8MCAGA1UdJQEB/wQWMBQGCCsGAQUFBwMB
BggrBgEFBQcDAjANBgkqhkiG9w0BAQsFAAOCAQEACIbyG4JwxwDfrvwc+D0tMUIZ
Oka3SutJAzuud+9uPBaC+qODfJcf2k/xbMXZ6zNU23bmQE7tAa6FTE7QKOHUwh18
DK3EtgEx6H3i9Hl1ViQ5wH48vIkzbIlNQ92W8/aPJrv8timDEQ930878NBxqjkHm
kAjiefVP8IF/3/bePHP4u95MgpEleRolWUTLPnpEisXnzuN4ABNE9nEuqobmwRwt
xq8pEHFDFmg5CIhCya6wsFo2c/ViyGrG2imlnEZiP26w9s3Nullxc3ajNs1beGtQ
FEy4v4m3v5W85TcdmCbt2wk/dcos5/fTlJKJWGXvr3MX3Rdicpu9EcteNwzE6A==
-----END CERTIFICATE-----
-----BEGIN CERTIFICATE-----
MIIE1DCCA7ygAwIBAgIJALkEvfgl0QRuMA0GCSqGSIb3DQEBCwUAMHAxCzAJBgNV
BAYTAkZSMQwwCgYDVQQIEwNJREYxDjAMBgNVBAcTBVBhcmlzMS8wLQYDVQQKEyZM
b2NhbCBOT0RFLU9QQ1VBIENlcnRpZmljYXRlIEF1dGhvcml0eTESMBAGA1UEAxMJ
Tm9kZU9QQ1VBMB4XDTE2MTIzMDIwNDYwOVoXDTI2MTIyODIwNDYwOVowcDELMAkG
A1UEBhMCRlIxDDAKBgNVBAgTA0lERjEOMAwGA1UEBxMFUGFyaXMxLzAtBgNVBAoT
JkxvY2FsIE5PREUtT1BDVUEgQ2VydGlmaWNhdGUgQXV0aG9yaXR5MRIwEAYDVQQD
EwlOb2RlT1BDVUEwggEiMA0GCSqGSIb3DQEBAQUAA4IBDwAwggEKAoIBAQDTQR6i
L/DWY8NVMvCA8FFDPKkj0xkg1HkBcJcssKfNYetk8QNYwbU5OQGa43GQ1Xj6yfRE
LpnGYJc/cnMQYaV2amJmx4ml8sa54iNJG6VGArwg3b7UUwk4thdZP2U6UaWwnrSb
M63nD/Iy6w9meysrWdu/HbUfUkexRlZ2YRZKGrOVbCQ5xdzKZVWdp5lAs1Nj+j2x
ViRxJLCWsD2p/rJjDt/XlxePm74dMZIECONP6c9HmguU3EJzmIwL5GtTs76FIl/i
zWOET/X/FW02UtHjb+Byp1jeWbDLbWO4u7TQc084YTCLsf+Ugfwgw4DZ+VDpjwgo
AnQ6ugB4Z7gYQo19AgMBAAGjggFvMIIBazAdBgNVHQ4EFgQUBU5i8N7/W5QSTz3G
dWV0y9a1mDcwgaIGA1UdIwSBmjCBl4AUBU5i8N7/W5QSTz3GdWV0y9a1mDehdKRy
MHAxCzAJBgNVBAYTAkZSMQwwCgYDVQQIEwNJREYxDjAMBgNVBAcTBVBhcmlzMS8w
LQYDVQQKEyZMb2NhbCBOT0RFLU9QQ1VBIENlcnRpZmljYXRlIEF1dGhvcml0eTES
MBAGA1UEAxMJTm9kZU9QQ1VBggkAuQS9+CXRBG4wDAYDVR0TBAUwAwEB/zAOBgNV
HQ8BAf8EBAMCAQYwVwYJYIZIAYb4QgENBEoWSENBIENlcnRpZmljYXRlIGdlbmVy
YXRlZCBieSBOb2RlLU9QQ1VBIENlcnRpZmljYXRlIHV0aWxpdHkgdXNpbmcgb3Bl
bnNzbDAuBgNVHR8EJzAlMCOgIaAfhh1odHRwOi8vbG9jYWxob3N0Ojg5MDAvY3Js
LnBlbTANBgkqhkiG9w0BAQsFAAOCAQEAd6TsXBRK7rqzM6PWr8c3ZC3srIofVNf7
zEK7UfgY4NTZ++Jgpjy6w+LOADbpSqdF4mKHTFItajjT9t0fCxKR8tSaGY5VeyfF
p3xvKbM9iVUpKiRn5LGyVi+a1gXuhxKPeFO4HExz/BV4bgU7PaydnVfDF9MUevzy
osR+jJaICYy7OK7vlRhiJoR4iprYJSeJZK6l8MVEwhZb3MWSXnbBx4kGp5tw1dko
w0Ewb2eXYuQTrUBqTZwSUcSvl9XKky8ZofBvytHP7qyFwV2XynUGHbSDnlRYuYmr
8BGVtuXRXejSOZlDOdRgcEeYLKveCG9U5GZzNwogMOZXD2M7UJMycw==
-----END CERTIFICATE-----
