Certificate Request:
    Data:
        Version: 0 (0x0)
        Subject: C=FR, O=NodeOPCUA, CN=NodeOPCUA
        Subject Public Key Info:
            Public Key Algorithm: rsaEncryption
                Public-Key: (2048 bit)
                Modulus:
                    00:c9:41:e1:54:73:6f:b0:45:5b:c8:eb:25:6a:fc:
                    55:53:b4:96:ff:7f:52:ac:7b:6f:df:9f:ac:2d:fe:
                    e9:f6:fb:80:74:91:85:4d:01:31:65:0a:cd:2e:a2:
                    f7:56:26:26:cd:54:d3:0a:d9:7b:52:28:c5:8f:a4:
                    b2:e6:5a:10:34:53:fb:22:eb:68:4d:97:62:9b:56:
                    9a:41:35:5c:bc:d8:56:82:71:1a:39:b3:8b:c8:f2:
                    58:20:d9:12:d6:81:00:bf:ad:6c:f0:25:02:83:f0:
                    2e:b0:bc:4f:66:65:a0:39:13:a5:1a:8f:d7:ff:6c:
                    9e:b2:87:6f:a6:d1:c3:65:9a:5c:68:b5:65:62:31:
                    7b:8c:19:2f:0c:8a:0d:cf:7b:25:3b:eb:f5:ae:78:
                    1c:cc:4f:90:ef:cd:e6:70:49:72:d2:60:a2:44:24:
                    66:8a:c6:66:5c:5e:ce:ce:7e:d5:d2:dd:31:4d:19:
                    6d:18:0b:d5:9c:74:a3:e7:aa:9e:5a:d1:7c:d9:82:
                    00:72:e6:98:7f:a7:2c:52:da:90:89:4a:da:18:3f:
                    a9:0a:b9:4d:da:76:e5:78:13:3d:2b:04:90:c7:73:
                    39:7b:b4:69:04:a1:d8:89:d6:7f:01:4e:63:ed:f2:
                    fd:46:ab:2f:b3:df:bf:1f:3c:14:81:f9:2b:3d:fa:
                    86:87
                Exponent: 65537 (0x10001)
        Attributes:
        Requested Extensions:
            X509v3 Basic Constraints: 
                CA:FALSE
            X509v3 Key Usage: critical
                Certificate Sign, CRL Sign
            X509v3 Subject Alternative Name: 
                URI:undefined, DNS:, DNS:, DNS:, DNS:, DNS:
    Signature Algorithm: sha256WithRSAEncryption
         ab:00:43:69:75:ee:e0:e7:e1:40:bc:b2:a3:8a:35:f8:30:8d:
         7c:64:b6:75:46:9a:24:2d:62:6e:ca:8a:9f:7b:44:2a:83:66:
         b0:e2:6e:78:b8:3a:6c:cb:54:55:a5:df:3d:6c:46:44:d8:f2:
         90:d6:68:f5:2b:7b:d2:02:53:49:73:34:ac:b2:5f:af:b5:92:
         3a:74:4c:b3:7c:7f:15:3c:4e:31:75:e5:1e:cf:d2:81:dc:d8:
         e2:32:6a:e1:97:7d:13:5f:19:2c:81:f5:4f:c3:84:4a:c7:12:
         10:de:5c:b4:ca:18:59:36:ad:4b:f0:52:e5:de:8d:80:67:84:
         49:38:ab:c1:e0:cc:28:b1:10:23:3e:44:3c:d7:c1:f6:68:bc:
         63:c8:bf:30:ae:d7:29:a9:c4:9a:56:e7:0f:61:7e:61:c1:b5:
         af:e3:e2:c6:a6:de:ae:55:6c:c5:91:d4:ee:06:b4:08:5f:44:
         f8:25:89:14:af:bd:ab:82:a8:67:85:d6:ea:67:32:b9:be:16:
         17:28:dc:81:b3:5e:50:a6:47:24:e8:da:08:d7:b3:87:6f:a9:
         0c:91:ec:03:22:8e:b2:2c:89:9b:db:b3:4d:a9:3a:5c:9b:62:
         55:d4:00:3f:9e:6a:a5:2e:5f:2e:e2:16:58:2f:7a:e5:33:1f:
         ff:54:2c:21
-----BEGIN CERTIFICATE REQUEST-----
MIICxjCCAa4CAQAwNTELMAkGA1UEBhMCRlIxEjAQBgNVBAoMCU5vZGVPUENVQTES
MBAGA1UEAwwJTm9kZU9QQ1VBMIIBIjANBgkqhkiG9w0BAQEFAAOCAQ8AMIIBCgKC
AQEAyUHhVHNvsEVbyOslavxVU7SW/39SrHtv35+sLf7p9vuAdJGFTQExZQrNLqL3
ViYmzVTTCtl7UijFj6Sy5loQNFP7IutoTZdim1aaQTVcvNhWgnEaObOLyPJYINkS
1oEAv61s8CUCg/AusLxPZmWgOROlGo/X/2yesodvptHDZZpcaLVlYjF7jBkvDIoN
z3slO+v1rngczE+Q783mcEly0mCiRCRmisZmXF7Ozn7V0t0xTRltGAvVnHSj56qe
WtF82YIAcuaYf6csUtqQiUraGD+pCrlN2nbleBM9KwSQx3M5e7RpBKHYidZ/AU5j
7fL9Rqsvs9+/HzwUgfkrPfqGhwIDAQABoEwwSgYJKoZIhvcNAQkOMT0wOzAJBgNV
HRMEAjAAMA4GA1UdDwEB/wQEAwIBBjAeBgNVHREEFzAVhgl1bmRlZmluZWSCAIIA
ggCCAIIAMA0GCSqGSIb3DQEBCwUAA4IBAQCrAENpde7g5+FAvLKjijX4MI18ZLZ1
RpokLWJuyoqfe0Qqg2aw4m54uDpsy1RVpd89bEZE2PKQ1mj1K3vSAlNJczSssl+v
tZI6dEyzfH8VPE4xdeUez9KB3NjiMmrhl30TXxksgfVPw4RKxxIQ3ly0yhhZNq1L
8FLl3o2AZ4RJOKvB4MwosRAjPkQ818H2aLxjyL8wrtcpqcSaVucPYX5hwbWv4+LG
pt6uVWzFkdTuBrQIX0T4JYkUr72rgqhnhdbqZzK5vhYXKNyBs15Qpkck6NoI17OH
b6kMkewDIo6yLImb27NNqTpcm2JV1AA/nmqlLl8u4hZYL3rlMx//VCwh
-----END CERTIFICATE REQUEST-----
