Certificate Request:
    Data:
        Version: 0 (0x0)
        Subject: C=FR, O=NodeOPCUA, CN=NodeOPCUA
        Subject Public Key Info:
            Public Key Algorithm: rsaEncryption
                Public-Key: (2048 bit)
                Modulus:
                    00:d1:93:a3:25:9d:dd:7c:9b:95:c7:73:23:49:42:
                    01:0f:ca:a1:d1:38:94:59:89:fc:25:12:d4:80:8a:
                    1b:b8:1a:8c:cb:52:13:59:a5:03:6a:57:31:50:01:
                    e1:e0:bd:0e:a3:ad:93:7c:ac:0b:d0:00:fa:88:ad:
                    61:29:3b:f4:c0:b2:e9:79:17:c1:fd:52:f4:79:c7:
                    b0:64:5c:ad:34:d1:22:10:9c:79:9f:41:c5:47:99:
                    8d:d3:34:1d:13:55:55:45:a2:37:f4:56:c4:f5:2f:
                    3b:e8:60:93:09:ca:1c:ae:2e:72:1e:a0:d5:69:4c:
                    37:b8:e4:9f:b4:c4:48:ab:41:8f:be:e0:b4:c9:26:
                    2f:b0:65:9d:59:8c:36:01:7e:04:44:53:6f:a4:88:
                    97:7c:69:0d:49:9e:fb:33:5c:29:49:bf:98:bd:13:
                    55:7d:ae:75:7e:74:d0:e9:c2:bc:91:a9:a9:8a:3b:
                    ab:41:47:0f:38:ad:20:06:cd:fd:c8:61:b0:16:ff:
                    c6:44:77:63:73:c9:82:15:58:27:bd:53:33:d3:43:
                    67:89:f2:4a:4e:8f:85:78:e5:8a:87:88:99:46:c8:
                    42:17:a4:7c:ea:68:75:69:60:11:70:54:b6:d9:e7:
                    95:49:6e:b3:bf:d9:fb:e8:7f:fe:c6:5e:5a:e3:7f:
                    01:07
                Exponent: 65537 (0x10001)
        Attributes:
        Requested Extensions:
            X509v3 Basic Constraints: 
                CA:FALSE
            X509v3 Key Usage: critical
                Certificate Sign, CRL Sign
            X509v3 Subject Alternative Name: 
                URI:undefined, DNS:, DNS:, DNS:, DNS:, DNS:
    Signature Algorithm: sha256WithRSAEncryption
         0c:51:20:5a:3e:fa:2a:54:bd:37:cc:c7:37:1f:ac:21:ee:48:
         46:a7:3f:1c:95:61:db:d9:74:2b:79:eb:8a:3f:49:61:e8:70:
         a3:a8:29:0e:2a:8d:b3:6a:63:ee:59:7f:7e:86:56:66:7f:b0:
         d0:76:c7:88:70:36:56:72:bf:58:d0:44:e1:b4:22:9f:b8:f2:
         54:91:7c:d3:eb:d8:3f:eb:f3:dc:56:f3:75:07:02:c0:c9:65:
         0d:b0:aa:d4:39:28:f1:1b:5c:3b:67:9a:e3:38:71:fb:d2:26:
         e4:48:b0:57:c2:23:e3:49:f5:2e:8c:32:4a:f3:bf:92:20:e1:
         72:8a:db:cf:f9:25:7d:b8:cf:a6:e5:5b:a3:43:2e:49:72:21:
         82:50:69:f5:89:0d:0a:5e:eb:42:41:a0:8c:c9:d1:cc:4a:bc:
         0e:cb:d8:a9:6c:cf:a2:64:d4:3d:3b:ae:25:ff:09:22:82:10:
         26:cc:03:ef:23:68:d0:48:08:1f:14:10:d8:92:0f:62:c8:52:
         4b:4e:52:eb:da:92:24:8d:cb:bf:5c:34:61:e2:af:83:8d:0b:
         a3:64:cd:ca:da:d7:fb:f9:f9:48:ed:cc:41:af:89:47:85:d3:
         a2:8e:3a:0a:08:2b:11:62:48:9f:51:f4:b2:f3:62:51:64:13:
         2c:18:01:96
-----BEGIN CERTIFICATE REQUEST-----
MIICxjCCAa4CAQAwNTELMAkGA1UEBhMCRlIxEjAQBgNVBAoMCU5vZGVPUENVQTES
MBAGA1UEAwwJTm9kZU9QQ1VBMIIBIjANBgkqhkiG9w0BAQEFAAOCAQ8AMIIBCgKC
AQEA0ZOjJZ3dfJuVx3MjSUIBD8qh0TiUWYn8JRLUgIobuBqMy1ITWaUDalcxUAHh
4L0Oo62TfKwL0AD6iK1hKTv0wLLpeRfB/VL0ecewZFytNNEiEJx5n0HFR5mN0zQd
E1VVRaI39FbE9S876GCTCcocri5yHqDVaUw3uOSftMRIq0GPvuC0ySYvsGWdWYw2
AX4ERFNvpIiXfGkNSZ77M1wpSb+YvRNVfa51fnTQ6cK8kampijurQUcPOK0gBs39
yGGwFv/GRHdjc8mCFVgnvVMz00NnifJKTo+FeOWKh4iZRshCF6R86mh1aWARcFS2
2eeVSW6zv9n76H/+xl5a438BBwIDAQABoEwwSgYJKoZIhvcNAQkOMT0wOzAJBgNV
HRMEAjAAMA4GA1UdDwEB/wQEAwIBBjAeBgNVHREEFzAVhgl1bmRlZmluZWSCAIIA
ggCCAIIAMA0GCSqGSIb3DQEBCwUAA4IBAQAMUSBaPvoqVL03zMc3H6wh7khGpz8c
lWHb2XQreeuKP0lh6HCjqCkOKo2zamPuWX9+hlZmf7DQdseIcDZWcr9Y0EThtCKf
uPJUkXzT69g/6/PcVvN1BwLAyWUNsKrUOSjxG1w7Z5rjOHH70ibkSLBXwiPjSfUu
jDJK87+SIOFyitvP+SV9uM+m5VujQy5JciGCUGn1iQ0KXutCQaCMydHMSrwOy9ip
bM+iZNQ9O64l/wkighAmzAPvI2jQSAgfFBDYkg9iyFJLTlLr2pIkjcu/XDRh4q+D
jQujZM3K2tf7+flI7cxBr4lHhdOijjoKCCsRYkifUfSy82JRZBMsGAGW
-----END CERTIFICATE REQUEST-----
