Certificate:
    Data:
        Version: 3 (0x2)
        Serial Number: 4107 (0x100b)
    Signature Algorithm: sha256WithRSAEncryption
        Issuer: O=NodeOPCUA, CN=NodeOPCUA
        Validity
            Not Before: Dec 29 20:46:09 2016 GMT
            Not After : Dec 29 20:46:09 2017 GMT
        Subject: O=NodeOPCUA, CN=NodeOPCUA
        Subject Public Key Info:
            Public Key Algorithm: rsaEncryption
                Public-Key: (2048 bit)
                Modulus:
                    00:d1:93:a3:25:9d:dd:7c:9b:95:c7:73:23:49:42:
                    01:0f:ca:a1:d1:38:94:59:89:fc:25:12:d4:80:8a:
                    1b:b8:1a:8c:cb:52:13:59:a5:03:6a:57:31:50:01:
                    e1:e0:bd:0e:a3:ad:93:7c:ac:0b:d0:00:fa:88:ad:
                    61:29:3b:f4:c0:b2:e9:79:17:c1:fd:52:f4:79:c7:
                    b0:64:5c:ad:34:d1:22:10:9c:79:9f:41:c5:47:99:
                    8d:d3:34:1d:13:55:55:45:a2:37:f4:56:c4:f5:2f:
                    3b:e8:60:93:09:ca:1c:ae:2e:72:1e:a0:d5:69:4c:
                    37:b8:e4:9f:b4:c4:48:ab:41:8f:be:e0:b4:c9:26:
                    2f:b0:65:9d:59:8c:36:01:7e:04:44:53:6f:a4:88:
                    97:7c:69:0d:49:9e:fb:33:5c:29:49:bf:98:bd:13:
                    55:7d:ae:75:7e:74:d0:e9:c2:bc:91:a9:a9:8a:3b:
                    ab:41:47:0f:38:ad:20:06:cd:fd:c8:61:b0:16:ff:
                    c6:44:77:63:73:c9:82:15:58:27:bd:53:33:d3:43:
                    67:89:f2:4a:4e:8f:85:78:e5:8a:87:88:99:46:c8:
                    42:17:a4:7c:ea:68:75:69:60:11:70:54:b6:d9:e7:
                    95:49:6e:b3:bf:d9:fb:e8:7f:fe:c6:5e:5a:e3:7f:
                    01:07
                Exponent: 65537 (0x10001)
        X509v3 extensions:
            X509v3 Basic Constraints: critical
                CA:FALSE
            X509v3 Subject Key Identifier: 
                ED:85:75:1C:A5:80:6B:CC:8B:C7:84:58:6C:83:47:28:F0:5D:63:3A
            X509v3 Authority Key Identifier: 
                keyid:ED:85:75:1C:A5:80:6B:CC:8B:C7:84:58:6C:83:47:28:F0:5D:63:3A
                DirName:/O=NodeOPCUA/CN=NodeOPCUA
                serial:10:0B

            X509v3 Subject Alternative Name: 
                URI:urn:giless-MBP.home:NodeOPCUA-DiscoveryServer, DNS:localhost, DNS:giless-MBP.home
            Netscape Comment: 
                OpenSSL Generated Certificate
            X509v3 Key Usage: critical
                Digital Signature, Non Repudiation, Key Encipherment, Data Encipherment, Key Agreement, Certificate Sign
            X509v3 Extended Key Usage: critical
                TLS Web Server Authentication, TLS Web Client Authentication
    Signature Algorithm: sha256WithRSAEncryption
         03:54:37:fe:d2:11:ae:73:e4:64:51:b2:d9:a7:b2:98:68:a5:
         6e:53:2b:64:14:50:97:b1:6d:b5:b4:fe:89:8f:ad:95:b9:13:
         a0:c9:46:16:b1:2c:9d:f7:5d:c9:54:61:5e:e4:31:17:d2:05:
         e7:91:b9:57:a1:f5:2a:16:86:04:3c:05:ed:e8:1c:6b:29:1d:
         b5:61:f2:47:7f:68:0a:b5:0e:3c:0f:5b:7a:62:c3:b2:a1:10:
         f4:bf:e0:e4:a5:da:86:75:a8:03:07:b2:07:9a:fe:45:93:1a:
         53:c5:7e:e6:e6:50:43:d9:16:3f:a2:4d:1d:14:60:07:b0:14:
         61:b3:1c:cf:dc:4d:87:14:34:f1:b8:47:e8:93:b2:27:a8:77:
         9c:ca:e1:5a:f5:3d:57:82:28:29:f0:be:89:3c:03:4d:31:d1:
         3d:c1:cc:b4:c7:83:cf:ed:cc:a1:9a:d8:f5:37:ce:ea:c2:6c:
         dd:57:01:9d:24:8e:b3:5c:14:45:6a:6c:b0:69:df:31:9b:43:
         97:4a:84:88:2c:d3:a4:77:df:1b:90:50:0a:2c:2a:03:db:4a:
         dd:46:7a:7a:de:9b:ac:4c:54:3a:da:9f:52:b4:bb:ef:8b:ad:
         d4:31:86:29:a0:eb:6a:55:90:71:ae:d8:9b:ef:79:a8:bf:ae:
         32:be:a6:7a
-----BEGIN CERTIFICATE-----
MIIEDDCCAvSgAwIBAgICEAswDQYJKoZIhvcNAQELBQAwKDESMBAGA1UEChMJTm9k
ZU9QQ1VBMRIwEAYDVQQDEwlOb2RlT1BDVUEwIhgPMjAxNjEyMjkyMDQ2MDlaGA8y
MDE3MTIyOTIwNDYwOVowKDESMBAGA1UEChMJTm9kZU9QQ1VBMRIwEAYDVQQDEwlO
b2RlT1BDVUEwggEiMA0GCSqGSIb3DQEBAQUAA4IBDwAwggEKAoIBAQDRk6Mlnd18
m5XHcyNJQgEPyqHROJRZifwlEtSAihu4GozLUhNZpQNqVzFQAeHgvQ6jrZN8rAvQ
APqIrWEpO/TAsul5F8H9UvR5x7BkXK000SIQnHmfQcVHmY3TNB0TVVVFojf0VsT1
LzvoYJMJyhyuLnIeoNVpTDe45J+0xEirQY++4LTJJi+wZZ1ZjDYBfgREU2+kiJd8
aQ1JnvszXClJv5i9E1V9rnV+dNDpwryRqamKO6tBRw84rSAGzf3IYbAW/8ZEd2Nz
yYIVWCe9UzPTQ2eJ8kpOj4V45YqHiJlGyEIXpHzqaHVpYBFwVLbZ55VJbrO/2fvo
f/7GXlrjfwEHAgMBAAGjggE6MIIBNjAMBgNVHRMBAf8EAjAAMB0GA1UdDgQWBBTt
hXUcpYBrzIvHhFhsg0co8F1jOjBRBgNVHSMESjBIgBTthXUcpYBrzIvHhFhsg0co
8F1jOqEspCowKDESMBAGA1UEChMJTm9kZU9QQ1VBMRIwEAYDVQQDEwlOb2RlT1BD
VUGCAhALMFQGA1UdEQRNMEuGLXVybjpnaWxlc3MtTUJQLmhvbWU6Tm9kZU9QQ1VB
LURpc2NvdmVyeVNlcnZlcoIJbG9jYWxob3N0gg9naWxlc3MtTUJQLmhvbWUwLAYJ
YIZIAYb4QgENBB8WHU9wZW5TU0wgR2VuZXJhdGVkIENlcnRpZmljYXRlMA4GA1Ud
DwEB/wQEAwIC/DAgBgNVHSUBAf8EFjAUBggrBgEFBQcDAQYIKwYBBQUHAwIwDQYJ
KoZIhvcNAQELBQADggEBAANUN/7SEa5z5GRRstmnsphopW5TK2QUUJexbbW0/omP
rZW5E6DJRhaxLJ33XclUYV7kMRfSBeeRuVeh9SoWhgQ8Be3oHGspHbVh8kd/aAq1
DjwPW3piw7KhEPS/4OSl2oZ1qAMHsgea/kWTGlPFfubmUEPZFj+iTR0UYAewFGGz
HM/cTYcUNPG4R+iTsieod5zK4Vr1PVeCKCnwvok8A00x0T3BzLTHg8/tzKGa2PU3
zurCbN1XAZ0kjrNcFEVqbLBp3zGbQ5dKhIgs06R33xuQUAosKgPbSt1Genrem6xM
VDran1K0u++LrdQxhimg62pVkHGu2Jvveai/rjK+pno=
-----END CERTIFICATE-----
