Certificate Request:
    Data:
        Version: 0 (0x0)
        Subject: C=FR, O=NodeOPCUA, CN=NodeOPCUA
        Subject Public Key Info:
            Public Key Algorithm: rsaEncryption
                Public-Key: (1024 bit)
                Modulus:
                    00:c0:69:d1:58:50:dd:d9:09:5a:ff:d5:77:c7:15:
                    b7:86:1c:0f:72:18:8f:b2:99:b8:7b:dd:9c:73:27:
                    6d:db:7a:11:c5:2e:c2:fc:d8:b4:33:68:e0:cf:d2:
                    d3:12:cb:f6:f6:07:18:af:57:a1:b4:1a:c2:a1:48:
                    62:c5:9e:b0:ae:8c:36:04:2d:30:c8:ad:56:28:8c:
                    6d:5a:10:bd:fe:35:f7:a1:d5:26:af:4b:01:d4:8f:
                    7d:82:a6:ac:8b:b8:bc:67:d2:8c:44:81:29:9c:1c:
                    23:e0:bd:6d:71:69:1a:89:03:69:90:a8:3f:9a:37:
                    0a:84:c4:44:4e:62:77:fb:59
                Exponent: 65537 (0x10001)
        Attributes:
        Requested Extensions:
            X509v3 Basic Constraints: 
                CA:FALSE
            X509v3 Key Usage: critical
                Certificate Sign, CRL Sign
            X509v3 Subject Alternative Name: 
                URI:undefined, DNS:, DNS:, DNS:, DNS:, DNS:
    Signature Algorithm: sha256WithRSAEncryption
         8d:71:78:c9:92:b5:e0:59:9c:bd:4e:3a:b1:36:f3:46:01:f5:
         11:b3:42:53:e8:1b:a9:4d:bf:22:37:f9:91:b8:cb:b8:74:ad:
         bc:82:33:44:3a:e2:5f:b0:e6:56:00:ff:9f:eb:82:e1:fc:b9:
         3a:c9:10:be:49:d4:69:ed:54:33:5e:26:50:73:1f:49:d4:25:
         0f:8f:b7:d2:77:f5:f9:d9:68:99:eb:ef:e8:59:cc:73:8d:14:
         b8:b4:19:2a:31:83:fc:e3:1f:c5:51:ea:c7:9b:8b:90:4f:83:
         56:ae:a8:8b:44:e4:17:8f:22:e8:37:64:b2:cc:cd:ee:ec:df:
         f0:98
-----BEGIN CERTIFICATE REQUEST-----
MIIBwTCCASoCAQAwNTELMAkGA1UEBhMCRlIxEjAQBgNVBAoMCU5vZGVPUENVQTES
MBAGA1UEAwwJTm9kZU9QQ1VBMIGfMA0GCSqGSIb3DQEBAQUAA4GNADCBiQKBgQDA
adFYUN3ZCVr/1XfHFbeGHA9yGI+ymbh73ZxzJ23behHFLsL82LQzaODP0tMSy/b2
BxivV6G0GsKhSGLFnrCujDYELTDIrVYojG1aEL3+Nfeh1SavSwHUj32CpqyLuLxn
0oxEgSmcHCPgvW1xaRqJA2mQqD+aNwqExEROYnf7WQIDAQABoEwwSgYJKoZIhvcN
AQkOMT0wOzAJBgNVHRMEAjAAMA4GA1UdDwEB/wQEAwIBBjAeBgNVHREEFzAVhgl1
bmRlZmluZWSCAIIAggCCAIIAMA0GCSqGSIb3DQEBCwUAA4GBAI1xeMmSteBZnL1O
OrE280YB9RGzQlPoG6lNvyI3+ZG4y7h0rbyCM0Q64l+w5lYA/5/rguH8uTrJEL5J
1GntVDNeJlBzH0nUJQ+Pt9J39fnZaJnr7+hZzHONFLi0GSoxg/zjH8VR6sebi5BP
g1auqItE5BePIug3ZLLMze7s3/CY
-----END CERTIFICATE REQUEST-----
