Certificate:
    Data:
        Version: 3 (0x2)
        Serial Number: 4104 (0x1008)
    Signature Algorithm: sha256WithRSAEncryption
        Issuer: C=FR, ST=IDF, L=Paris, O=Local NODE-OPCUA Certificate Authority, CN=NodeOPCUA
        Validity
            Not Before: Dec 29 20:46:09 2016 GMT
            Not After : Dec 29 20:46:09 2017 GMT
        Subject: C=FR, O=NodeOPCUA, CN=NodeOPCUA
        Subject Public Key Info:
            Public Key Algorithm: rsaEncryption
                Public-Key: (1024 bit)
                Modulus:
                    00:c0:69:d1:58:50:dd:d9:09:5a:ff:d5:77:c7:15:
                    b7:86:1c:0f:72:18:8f:b2:99:b8:7b:dd:9c:73:27:
                    6d:db:7a:11:c5:2e:c2:fc:d8:b4:33:68:e0:cf:d2:
                    d3:12:cb:f6:f6:07:18:af:57:a1:b4:1a:c2:a1:48:
                    62:c5:9e:b0:ae:8c:36:04:2d:30:c8:ad:56:28:8c:
                    6d:5a:10:bd:fe:35:f7:a1:d5:26:af:4b:01:d4:8f:
                    7d:82:a6:ac:8b:b8:bc:67:d2:8c:44:81:29:9c:1c:
                    23:e0:bd:6d:71:69:1a:89:03:69:90:a8:3f:9a:37:
                    0a:84:c4:44:4e:62:77:fb:59
                Exponent: 65537 (0x10001)
        X509v3 extensions:
            X509v3 Basic Constraints: critical
                CA:FALSE
            X509v3 Subject Key Identifier: 
                59:7B:6C:FB:0D:CA:D6:28:F8:5D:13:4E:FC:34:9B:99:4C:93:E5:D7
            X509v3 Authority Key Identifier: 
                keyid:05:4E:62:F0:DE:FF:5B:94:12:4F:3D:C6:75:65:74:CB:D6:B5:98:37
                DirName:/C=FR/ST=IDF/L=Paris/O=Local NODE-OPCUA Certificate Authority/CN=NodeOPCUA
                serial:B9:04:BD:F8:25:D1:04:6E

            X509v3 Subject Alternative Name: 
                URI:urn:giless-MBP.home:NodeOPCUA-DiscoveryServer, DNS:localhost, DNS:giless-MBP.home
            Netscape Comment: 
                OpenSSL Generated Certificate
            X509v3 Key Usage: critical
                Digital Signature, Non Repudiation, Key Encipherment, Data Encipherment, Key Agreement, Certificate Sign
            X509v3 Extended Key Usage: critical
                TLS Web Server Authentication, TLS Web Client Authentication
    Signature Algorithm: sha256WithRSAEncryption
         95:23:06:09:0d:fd:10:3e:80:6f:f9:7b:7d:4c:a9:d0:05:d8:
         27:a7:fb:13:9c:9f:f4:80:87:25:01:77:37:55:9a:75:0d:47:
         63:30:e3:c6:9f:3d:ff:94:cf:1b:a3:28:c0:d4:e7:78:08:74:
         59:0c:8d:e6:19:0a:47:29:82:b9:c3:2d:f7:15:9e:da:8c:ae:
         48:d5:2c:10:f6:25:9f:46:22:0c:d4:1a:15:14:16:d7:b2:f9:
         3b:65:61:29:08:76:cd:71:7b:56:ac:80:d0:38:19:a1:f1:09:
         a5:53:d2:c7:19:26:91:92:ad:22:d1:3f:78:2e:1e:e7:f5:f0:
         87:76:f9:c9:a6:f8:54:3e:44:53:99:cb:44:e6:75:34:dd:64:
         2a:bd:41:8a:55:da:e7:af:65:36:9e:3d:25:80:04:32:71:f5:
         47:87:38:31:47:26:bd:12:19:51:99:63:09:2e:ea:c0:23:17:
         74:d8:80:d0:d4:b4:f9:e0:05:36:9a:5a:9a:86:88:4c:19:80:
         fe:85:10:8f:76:0d:4a:b3:29:d7:6f:38:5f:41:7a:42:4d:83:
         3e:a3:88:2e:f2:32:9b:e8:fd:54:61:98:f4:86:e8:a7:9f:c3:
         0c:e5:37:3f:67:fb:d7:de:c4:de:57:2f:1f:ef:48:24:cb:e0:
         42:eb:e3:2e
-----BEGIN CERTIFICATE-----
MIIELzCCAxegAwIBAgICEAgwDQYJKoZIhvcNAQELBQAwcDELMAkGA1UEBhMCRlIx
DDAKBgNVBAgTA0lERjEOMAwGA1UEBxMFUGFyaXMxLzAtBgNVBAoTJkxvY2FsIE5P
REUtT1BDVUEgQ2VydGlmaWNhdGUgQXV0aG9yaXR5MRIwEAYDVQQDEwlOb2RlT1BD
VUEwIhgPMjAxNjEyMjkyMDQ2MDlaGA8yMDE3MTIyOTIwNDYwOVowNTELMAkGA1UE
BhMCRlIxEjAQBgNVBAoMCU5vZGVPUENVQTESMBAGA1UEAwwJTm9kZU9QQ1VBMIGf
MA0GCSqGSIb3DQEBAQUAA4GNADCBiQKBgQDAadFYUN3ZCVr/1XfHFbeGHA9yGI+y
mbh73ZxzJ23behHFLsL82LQzaODP0tMSy/b2BxivV6G0GsKhSGLFnrCujDYELTDI
rVYojG1aEL3+Nfeh1SavSwHUj32CpqyLuLxn0oxEgSmcHCPgvW1xaRqJA2mQqD+a
NwqExEROYnf7WQIDAQABo4IBjDCCAYgwDAYDVR0TAQH/BAIwADAdBgNVHQ4EFgQU
WXts+w3K1ij4XRNO/DSbmUyT5dcwgaIGA1UdIwSBmjCBl4AUBU5i8N7/W5QSTz3G
dWV0y9a1mDehdKRyMHAxCzAJBgNVBAYTAkZSMQwwCgYDVQQIEwNJREYxDjAMBgNV
BAcTBVBhcmlzMS8wLQYDVQQKEyZMb2NhbCBOT0RFLU9QQ1VBIENlcnRpZmljYXRl
IEF1dGhvcml0eTESMBAGA1UEAxMJTm9kZU9QQ1VBggkAuQS9+CXRBG4wVAYDVR0R
BE0wS4YtdXJuOmdpbGVzcy1NQlAuaG9tZTpOb2RlT1BDVUEtRGlzY292ZXJ5U2Vy
dmVygglsb2NhbGhvc3SCD2dpbGVzcy1NQlAuaG9tZTAsBglghkgBhvhCAQ0EHxYd
T3BlblNTTCBHZW5lcmF0ZWQgQ2VydGlmaWNhdGUwDgYDVR0PAQH/BAQDAgL8MCAG
A1UdJQEB/wQWMBQGCCsGAQUFBwMBBggrBgEFBQcDAjANBgkqhkiG9w0BAQsFAAOC
AQEAlSMGCQ39ED6Ab/l7fUyp0AXYJ6f7E5yf9ICHJQF3N1WadQ1HYzDjxp89/5TP
G6MowNTneAh0WQyN5hkKRymCucMt9xWe2oyuSNUsEPYln0YiDNQaFRQW17L5O2Vh
KQh2zXF7VqyA0DgZofEJpVPSxxkmkZKtItE/eC4e5/Xwh3b5yab4VD5EU5nLROZ1
NN1kKr1BilXa569lNp49JYAEMnH1R4c4MUcmvRIZUZljCS7qwCMXdNiA0NS0+eAF
NppamoaITBmA/oUQj3YNSrMp1284X0F6Qk2DPqOILvIym+j9VGGY9Ibop5/DDOU3
P2f7197E3lcvH+9IJMvgQuvjLg==
-----END CERTIFICATE-----
-----BEGIN CERTIFICATE-----
MIIE1DCCA7ygAwIBAgIJALkEvfgl0QRuMA0GCSqGSIb3DQEBCwUAMHAxCzAJBgNV
BAYTAkZSMQwwCgYDVQQIEwNJREYxDjAMBgNVBAcTBVBhcmlzMS8wLQYDVQQKEyZM
b2NhbCBOT0RFLU9QQ1VBIENlcnRpZmljYXRlIEF1dGhvcml0eTESMBAGA1UEAxMJ
Tm9kZU9QQ1VBMB4XDTE2MTIzMDIwNDYwOVoXDTI2MTIyODIwNDYwOVowcDELMAkG
A1UEBhMCRlIxDDAKBgNVBAgTA0lERjEOMAwGA1UEBxMFUGFyaXMxLzAtBgNVBAoT
JkxvY2FsIE5PREUtT1BDVUEgQ2VydGlmaWNhdGUgQXV0aG9yaXR5MRIwEAYDVQQD
EwlOb2RlT1BDVUEwggEiMA0GCSqGSIb3DQEBAQUAA4IBDwAwggEKAoIBAQDTQR6i
L/DWY8NVMvCA8FFDPKkj0xkg1HkBcJcssKfNYetk8QNYwbU5OQGa43GQ1Xj6yfRE
LpnGYJc/cnMQYaV2amJmx4ml8sa54iNJG6VGArwg3b7UUwk4thdZP2U6UaWwnrSb
M63nD/Iy6w9meysrWdu/HbUfUkexRlZ2YRZKGrOVbCQ5xdzKZVWdp5lAs1Nj+j2x
ViRxJLCWsD2p/rJjDt/XlxePm74dMZIECONP6c9HmguU3EJzmIwL5GtTs76FIl/i
zWOET/X/FW02UtHjb+Byp1jeWbDLbWO4u7TQc084YTCLsf+Ugfwgw4DZ+VDpjwgo
AnQ6ugB4Z7gYQo19AgMBAAGjggFvMIIBazAdBgNVHQ4EFgQUBU5i8N7/W5QSTz3G
dWV0y9a1mDcwgaIGA1UdIwSBmjCBl4AUBU5i8N7/W5QSTz3GdWV0y9a1mDehdKRy
MHAxCzAJBgNVBAYTAkZSMQwwCgYDVQQIEwNJREYxDjAMBgNVBAcTBVBhcmlzMS8w
LQYDVQQKEyZMb2NhbCBOT0RFLU9QQ1VBIENlcnRpZmljYXRlIEF1dGhvcml0eTES
MBAGA1UEAxMJTm9kZU9QQ1VBggkAuQS9+CXRBG4wDAYDVR0TBAUwAwEB/zAOBgNV
HQ8BAf8EBAMCAQYwVwYJYIZIAYb4QgENBEoWSENBIENlcnRpZmljYXRlIGdlbmVy
YXRlZCBieSBOb2RlLU9QQ1VBIENlcnRpZmljYXRlIHV0aWxpdHkgdXNpbmcgb3Bl
bnNzbDAuBgNVHR8EJzAlMCOgIaAfhh1odHRwOi8vbG9jYWxob3N0Ojg5MDAvY3Js
LnBlbTANBgkqhkiG9w0BAQsFAAOCAQEAd6TsXBRK7rqzM6PWr8c3ZC3srIofVNf7
zEK7UfgY4NTZ++Jgpjy6w+LOADbpSqdF4mKHTFItajjT9t0fCxKR8tSaGY5VeyfF
p3xvKbM9iVUpKiRn5LGyVi+a1gXuhxKPeFO4HExz/BV4bgU7PaydnVfDF9MUevzy
osR+jJaICYy7OK7vlRhiJoR4iprYJSeJZK6l8MVEwhZb3MWSXnbBx4kGp5tw1dko
w0Ewb2eXYuQTrUBqTZwSUcSvl9XKky8ZofBvytHP7qyFwV2XynUGHbSDnlRYuYmr
8BGVtuXRXejSOZlDOdRgcEeYLKveCG9U5GZzNwogMOZXD2M7UJMycw==
-----END CERTIFICATE-----
