Certificate:
    Data:
        Version: 3 (0x2)
        Serial Number: 4102 (0x1006)
    Signature Algorithm: sha256WithRSAEncryption
        Issuer: C=FR, ST=IDF, L=Paris, O=Local NODE-OPCUA Certificate Authority, CN=NodeOPCUA
        Validity
            Not Before: Dec 29 20:46:09 2016 GMT
            Not After : Dec 29 20:46:09 2017 GMT
        Subject: C=FR, O=NodeOPCUA, CN=NodeOPCUA
        Subject Public Key Info:
            Public Key Algorithm: rsaEncryption
                Public-Key: (2048 bit)
                Modulus:
                    00:e3:21:b1:43:1e:e0:b4:5b:46:d1:d4:fe:3a:46:
                    5f:4f:27:67:45:78:f9:4f:cf:53:e2:d4:42:fd:80:
                    7d:c6:a8:90:d8:9b:bb:07:c5:03:b9:7e:7f:73:f2:
                    fa:b6:b9:6c:7e:5b:64:67:5c:ce:59:a8:1c:cf:fd:
                    df:98:a9:b7:40:f3:7f:af:b8:88:6a:6f:ac:6b:16:
                    98:d6:d9:19:ad:d1:ee:88:32:29:e2:cd:ad:1a:5b:
                    0a:e3:c4:12:be:99:e2:0f:e7:91:8a:29:72:b9:aa:
                    98:76:c8:80:09:fe:a6:6e:d1:a2:02:6b:f3:7e:bf:
                    e3:ab:f0:89:83:6c:9a:66:70:11:79:a5:3b:3f:0f:
                    33:d3:58:32:3c:0e:3d:a3:e5:6d:fe:80:0a:dc:4e:
                    2a:d8:8b:88:0b:16:0a:24:10:54:1a:da:fb:fc:34:
                    1f:3a:92:ab:d4:17:1b:7c:61:43:cd:ce:06:04:51:
                    f2:50:13:fe:bc:9b:e3:a4:8b:5f:f9:d0:b9:5a:2a:
                    dc:b7:db:57:3c:da:5c:b7:21:09:60:c5:cd:85:c5:
                    a1:16:8d:e7:c2:05:70:53:98:82:fa:be:6a:e5:dd:
                    30:d0:e9:32:23:ac:7c:df:4b:40:7b:c7:74:30:78:
                    7d:e5:51:b7:5b:c4:31:58:a6:28:8c:a3:55:a9:36:
                    a4:0b
                Exponent: 65537 (0x10001)
        X509v3 extensions:
            X509v3 Basic Constraints: critical
                CA:FALSE
            X509v3 Subject Key Identifier: 
                27:C8:5C:98:3B:51:DE:DD:EC:EF:68:C2:3D:29:1F:BD:EC:32:47:EC
            X509v3 Authority Key Identifier: 
                keyid:05:4E:62:F0:DE:FF:5B:94:12:4F:3D:C6:75:65:74:CB:D6:B5:98:37
                DirName:/C=FR/ST=IDF/L=Paris/O=Local NODE-OPCUA Certificate Authority/CN=NodeOPCUA
                serial:B9:04:BD:F8:25:D1:04:6E

            X509v3 Subject Alternative Name: 
                URI:urn:giless-MBP.home:NodeOPCUA-Server, DNS:localhost, DNS:giless-MBP.home
            Netscape Comment: 
                OpenSSL Generated Certificate
            X509v3 Key Usage: critical
                Digital Signature, Non Repudiation, Key Encipherment, Data Encipherment, Key Agreement, Certificate Sign
            X509v3 Extended Key Usage: critical
                TLS Web Server Authentication, TLS Web Client Authentication
    Signature Algorithm: sha256WithRSAEncryption
         67:b5:71:45:e1:56:f0:e9:b0:e9:03:b1:e7:e2:f8:b2:2d:14:
         e2:25:8e:d7:85:e3:06:e9:a2:d2:48:57:d3:08:e8:81:d8:7d:
         96:25:62:4c:97:06:31:4c:97:9e:02:b6:cc:c4:f5:09:31:a0:
         2a:3f:7d:a0:d1:4f:dc:46:ec:7f:29:a6:ab:9c:ee:bb:a8:c1:
         ac:a5:38:a2:92:07:56:66:1e:3f:90:e3:1b:6c:90:03:d2:7b:
         ff:23:49:df:d2:1d:ac:f9:f6:79:8a:84:3f:70:d4:02:0f:30:
         86:2d:d0:0d:be:d8:11:27:84:83:1e:fb:0e:ac:a0:de:d4:5c:
         8a:83:51:5a:26:26:1e:11:e6:23:39:c4:72:b6:88:22:73:1f:
         54:40:75:01:80:83:40:17:03:e2:d0:e1:16:85:17:61:4e:8b:
         3f:21:b5:35:21:77:af:24:2a:1b:89:43:67:ec:d5:1f:59:ed:
         92:15:61:7c:fe:e6:3e:a7:ca:86:84:e4:3e:52:56:65:05:61:
         e9:58:55:4b:6e:8f:31:56:ed:a9:bc:5f:8a:27:fa:e6:73:29:
         dc:c0:b2:0a:10:d5:92:64:75:e0:83:c2:03:06:d7:d6:d7:cd:
         18:f1:20:f2:1d:17:f3:ab:72:81:74:08:d7:29:15:9d:b4:52:
         15:9f:d9:ee
-----BEGIN CERTIFICATE-----
MIIEqjCCA5KgAwIBAgICEAYwDQYJKoZIhvcNAQELBQAwcDELMAkGA1UEBhMCRlIx
DDAKBgNVBAgTA0lERjEOMAwGA1UEBxMFUGFyaXMxLzAtBgNVBAoTJkxvY2FsIE5P
REUtT1BDVUEgQ2VydGlmaWNhdGUgQXV0aG9yaXR5MRIwEAYDVQQDEwlOb2RlT1BD
VUEwIhgPMjAxNjEyMjkyMDQ2MDlaGA8yMDE3MTIyOTIwNDYwOVowNTELMAkGA1UE
BhMCRlIxEjAQBgNVBAoMCU5vZGVPUENVQTESMBAGA1UEAwwJTm9kZU9QQ1VBMIIB
IjANBgkqhkiG9w0BAQEFAAOCAQ8AMIIBCgKCAQEA4yGxQx7gtFtG0dT+OkZfTydn
RXj5T89T4tRC/YB9xqiQ2Ju7B8UDuX5/c/L6trlsfltkZ1zOWagcz/3fmKm3QPN/
r7iIam+saxaY1tkZrdHuiDIp4s2tGlsK48QSvpniD+eRiilyuaqYdsiACf6mbtGi
Amvzfr/jq/CJg2yaZnAReaU7Pw8z01gyPA49o+Vt/oAK3E4q2IuICxYKJBBUGtr7
/DQfOpKr1BcbfGFDzc4GBFHyUBP+vJvjpItf+dC5Wirct9tXPNpctyEJYMXNhcWh
Fo3nwgVwU5iC+r5q5d0w0OkyI6x830tAe8d0MHh95VG3W8QxWKYojKNVqTakCwID
AQABo4IBgzCCAX8wDAYDVR0TAQH/BAIwADAdBgNVHQ4EFgQUJ8hcmDtR3t3s72jC
PSkfvewyR+wwgaIGA1UdIwSBmjCBl4AUBU5i8N7/W5QSTz3GdWV0y9a1mDehdKRy
MHAxCzAJBgNVBAYTAkZSMQwwCgYDVQQIEwNJREYxDjAMBgNVBAcTBVBhcmlzMS8w
LQYDVQQKEyZMb2NhbCBOT0RFLU9QQ1VBIENlcnRpZmljYXRlIEF1dGhvcml0eTES
MBAGA1UEAxMJTm9kZU9QQ1VBggkAuQS9+CXRBG4wSwYDVR0RBEQwQoYkdXJuOmdp
bGVzcy1NQlAuaG9tZTpOb2RlT1BDVUEtU2VydmVygglsb2NhbGhvc3SCD2dpbGVz
cy1NQlAuaG9tZTAsBglghkgBhvhCAQ0EHxYdT3BlblNTTCBHZW5lcmF0ZWQgQ2Vy
dGlmaWNhdGUwDgYDVR0PAQH/BAQDAgL8MCAGA1UdJQEB/wQWMBQGCCsGAQUFBwMB
BggrBgEFBQcDAjANBgkqhkiG9w0BAQsFAAOCAQEAZ7VxReFW8Omw6QOx5+L4si0U
4iWO14XjBumi0khX0wjogdh9liViTJcGMUyXngK2zMT1CTGgKj99oNFP3Ebsfymm
q5zuu6jBrKU4opIHVmYeP5DjG2yQA9J7/yNJ39IdrPn2eYqEP3DUAg8whi3QDb7Y
ESeEgx77Dqyg3tRcioNRWiYmHhHmIznEcraIInMfVEB1AYCDQBcD4tDhFoUXYU6L
PyG1NSF3ryQqG4lDZ+zVH1ntkhVhfP7mPqfKhoTkPlJWZQVh6VhVS26PMVbtqbxf
iif65nMp3MCyChDVkmR14IPCAwbX1tfNGPEg8h0X86tygXQI1ykVnbRSFZ/Z7g==
-----END CERTIFICATE-----
-----BEGIN CERTIFICATE-----
MIIE1DCCA7ygAwIBAgIJALkEvfgl0QRuMA0GCSqGSIb3DQEBCwUAMHAxCzAJBgNV
BAYTAkZSMQwwCgYDVQQIEwNJREYxDjAMBgNVBAcTBVBhcmlzMS8wLQYDVQQKEyZM
b2NhbCBOT0RFLU9QQ1VBIENlcnRpZmljYXRlIEF1dGhvcml0eTESMBAGA1UEAxMJ
Tm9kZU9QQ1VBMB4XDTE2MTIzMDIwNDYwOVoXDTI2MTIyODIwNDYwOVowcDELMAkG
A1UEBhMCRlIxDDAKBgNVBAgTA0lERjEOMAwGA1UEBxMFUGFyaXMxLzAtBgNVBAoT
JkxvY2FsIE5PREUtT1BDVUEgQ2VydGlmaWNhdGUgQXV0aG9yaXR5MRIwEAYDVQQD
EwlOb2RlT1BDVUEwggEiMA0GCSqGSIb3DQEBAQUAA4IBDwAwggEKAoIBAQDTQR6i
L/DWY8NVMvCA8FFDPKkj0xkg1HkBcJcssKfNYetk8QNYwbU5OQGa43GQ1Xj6yfRE
LpnGYJc/cnMQYaV2amJmx4ml8sa54iNJG6VGArwg3b7UUwk4thdZP2U6UaWwnrSb
M63nD/Iy6w9meysrWdu/HbUfUkexRlZ2YRZKGrOVbCQ5xdzKZVWdp5lAs1Nj+j2x
ViRxJLCWsD2p/rJjDt/XlxePm74dMZIECONP6c9HmguU3EJzmIwL5GtTs76FIl/i
zWOET/X/FW02UtHjb+Byp1jeWbDLbWO4u7TQc084YTCLsf+Ugfwgw4DZ+VDpjwgo
AnQ6ugB4Z7gYQo19AgMBAAGjggFvMIIBazAdBgNVHQ4EFgQUBU5i8N7/W5QSTz3G
dWV0y9a1mDcwgaIGA1UdIwSBmjCBl4AUBU5i8N7/W5QSTz3GdWV0y9a1mDehdKRy
MHAxCzAJBgNVBAYTAkZSMQwwCgYDVQQIEwNJREYxDjAMBgNVBAcTBVBhcmlzMS8w
LQYDVQQKEyZMb2NhbCBOT0RFLU9QQ1VBIENlcnRpZmljYXRlIEF1dGhvcml0eTES
MBAGA1UEAxMJTm9kZU9QQ1VBggkAuQS9+CXRBG4wDAYDVR0TBAUwAwEB/zAOBgNV
HQ8BAf8EBAMCAQYwVwYJYIZIAYb4QgENBEoWSENBIENlcnRpZmljYXRlIGdlbmVy
YXRlZCBieSBOb2RlLU9QQ1VBIENlcnRpZmljYXRlIHV0aWxpdHkgdXNpbmcgb3Bl
bnNzbDAuBgNVHR8EJzAlMCOgIaAfhh1odHRwOi8vbG9jYWxob3N0Ojg5MDAvY3Js
LnBlbTANBgkqhkiG9w0BAQsFAAOCAQEAd6TsXBRK7rqzM6PWr8c3ZC3srIofVNf7
zEK7UfgY4NTZ++Jgpjy6w+LOADbpSqdF4mKHTFItajjT9t0fCxKR8tSaGY5VeyfF
p3xvKbM9iVUpKiRn5LGyVi+a1gXuhxKPeFO4HExz/BV4bgU7PaydnVfDF9MUevzy
osR+jJaICYy7OK7vlRhiJoR4iprYJSeJZK6l8MVEwhZb3MWSXnbBx4kGp5tw1dko
w0Ewb2eXYuQTrUBqTZwSUcSvl9XKky8ZofBvytHP7qyFwV2XynUGHbSDnlRYuYmr
8BGVtuXRXejSOZlDOdRgcEeYLKveCG9U5GZzNwogMOZXD2M7UJMycw==
-----END CERTIFICATE-----
