Certificate Request:
    Data:
        Version: 0 (0x0)
        Subject: C=FR, O=NodeOPCUA, CN=NodeOPCUA
        Subject Public Key Info:
            Public Key Algorithm: rsaEncryption
                Public-Key: (1024 bit)
                Modulus:
                    00:dc:29:05:7c:81:e6:17:72:c7:8b:71:d4:ff:b5:
                    3c:ac:cb:04:ae:a7:d2:b8:0f:0a:3b:9d:2a:ec:57:
                    cd:eb:b5:cf:85:29:95:fd:62:59:3f:2a:c0:2a:a6:
                    e0:ce:c5:6c:f0:61:b8:a8:0e:2a:b2:d3:dc:c8:1a:
                    25:22:96:b1:92:dd:23:ee:eb:26:83:79:53:4b:4f:
                    c6:ca:4c:31:40:e3:5d:ea:6b:7f:b1:05:61:69:4c:
                    d2:f9:61:2c:ae:78:90:4c:de:2c:b0:b7:2e:90:7a:
                    aa:5e:03:35:07:50:ed:0e:aa:02:a6:ca:32:a3:2c:
                    83:36:6a:f5:1d:01:13:06:6f
                Exponent: 65537 (0x10001)
        Attributes:
        Requested Extensions:
            X509v3 Basic Constraints: 
                CA:FALSE
            X509v3 Key Usage: critical
                Certificate Sign, CRL Sign
            X509v3 Subject Alternative Name: 
                URI:undefined, DNS:, DNS:, DNS:, DNS:, DNS:
    Signature Algorithm: sha256WithRSAEncryption
         96:51:9f:0f:13:c2:cc:9c:32:d2:6d:96:c8:b2:9c:67:d7:61:
         00:15:65:2d:14:fa:68:ea:1c:f7:13:57:9d:1d:c5:02:1d:f1:
         21:24:e1:c0:c3:8e:31:93:70:95:f5:a5:be:31:7d:03:b0:2e:
         13:84:67:df:7b:61:6c:67:e3:b3:9a:42:8e:1e:11:d1:9a:25:
         5a:10:26:f8:54:f7:88:3c:f4:17:b4:a3:2f:94:c8:35:0f:80:
         60:1d:b7:42:96:49:5c:5a:2c:24:2d:8e:19:b8:7e:80:26:bc:
         74:14:15:d0:65:a0:17:c7:0f:1c:90:55:2c:87:d5:65:d3:b3:
         3e:8c
-----BEGIN CERTIFICATE REQUEST-----
MIIBwTCCASoCAQAwNTELMAkGA1UEBhMCRlIxEjAQBgNVBAoMCU5vZGVPUENVQTES
MBAGA1UEAwwJTm9kZU9QQ1VBMIGfMA0GCSqGSIb3DQEBAQUAA4GNADCBiQKBgQDc
KQV8geYXcseLcdT/tTysywSup9K4Dwo7nSrsV83rtc+FKZX9Ylk/KsAqpuDOxWzw
YbioDiqy09zIGiUilrGS3SPu6yaDeVNLT8bKTDFA413qa3+xBWFpTNL5YSyueJBM
3iywty6QeqpeAzUHUO0OqgKmyjKjLIM2avUdARMGbwIDAQABoEwwSgYJKoZIhvcN
AQkOMT0wOzAJBgNVHRMEAjAAMA4GA1UdDwEB/wQEAwIBBjAeBgNVHREEFzAVhgl1
bmRlZmluZWSCAIIAggCCAIIAMA0GCSqGSIb3DQEBCwUAA4GBAJZRnw8TwsycMtJt
lsiynGfXYQAVZS0U+mjqHPcTV50dxQId8SEk4cDDjjGTcJX1pb4xfQOwLhOEZ997
YWxn47OaQo4eEdGaJVoQJvhU94g89Be0oy+UyDUPgGAdt0KWSVxaLCQtjhm4foAm
vHQUFdBloBfHDxyQVSyH1WXTsz6M
-----END CERTIFICATE REQUEST-----
