Certificate:
    Data:
        Version: 3 (0x2)
        Serial Number: 4100 (0x1004)
    Signature Algorithm: sha256WithRSAEncryption
        Issuer: C=FR, ST=IDF, L=Paris, O=Local NODE-OPCUA Certificate Authority, CN=NodeOPCUA
        Validity
            Not Before: Dec 29 20:46:09 2016 GMT
            Not After : Dec 29 20:46:09 2017 GMT
        Subject: C=FR, O=NodeOPCUA, CN=NodeOPCUA
        Subject Public Key Info:
            Public Key Algorithm: rsaEncryption
                Public-Key: (1024 bit)
                Modulus:
                    00:dc:29:05:7c:81:e6:17:72:c7:8b:71:d4:ff:b5:
                    3c:ac:cb:04:ae:a7:d2:b8:0f:0a:3b:9d:2a:ec:57:
                    cd:eb:b5:cf:85:29:95:fd:62:59:3f:2a:c0:2a:a6:
                    e0:ce:c5:6c:f0:61:b8:a8:0e:2a:b2:d3:dc:c8:1a:
                    25:22:96:b1:92:dd:23:ee:eb:26:83:79:53:4b:4f:
                    c6:ca:4c:31:40:e3:5d:ea:6b:7f:b1:05:61:69:4c:
                    d2:f9:61:2c:ae:78:90:4c:de:2c:b0:b7:2e:90:7a:
                    aa:5e:03:35:07:50:ed:0e:aa:02:a6:ca:32:a3:2c:
                    83:36:6a:f5:1d:01:13:06:6f
                Exponent: 65537 (0x10001)
        X509v3 extensions:
            X509v3 Basic Constraints: critical
                CA:FALSE
            X509v3 Subject Key Identifier: 
                A2:31:C5:B9:ED:B0:19:17:25:6D:E4:4A:DA:C2:3A:D5:FE:AC:7E:23
            X509v3 Authority Key Identifier: 
                keyid:05:4E:62:F0:DE:FF:5B:94:12:4F:3D:C6:75:65:74:CB:D6:B5:98:37
                DirName:/C=FR/ST=IDF/L=Paris/O=Local NODE-OPCUA Certificate Authority/CN=NodeOPCUA
                serial:B9:04:BD:F8:25:D1:04:6E

            X509v3 Subject Alternative Name: 
                URI:urn:giless-MBP.home:NodeOPCUA-Server, DNS:localhost, DNS:giless-MBP.home
            Netscape Comment: 
                OpenSSL Generated Certificate
            X509v3 Key Usage: critical
                Digital Signature, Non Repudiation, Key Encipherment, Data Encipherment, Key Agreement, Certificate Sign
            X509v3 Extended Key Usage: critical
                TLS Web Server Authentication, TLS Web Client Authentication
    Signature Algorithm: sha256WithRSAEncryption
         8a:f1:d5:01:8e:4b:5b:a7:a1:ae:cf:17:e5:97:92:8f:ea:49:
         36:11:27:81:f5:1e:37:3e:8b:9c:d3:c4:55:6b:e1:37:de:67:
         e4:ff:e5:82:75:d5:d7:ad:ca:3f:bd:d6:ee:27:85:40:9e:95:
         07:37:3a:cb:cb:2b:7c:36:25:25:66:f6:99:78:e1:73:b7:66:
         d5:84:ee:04:42:c4:4d:9e:08:95:f2:6d:46:23:4d:ae:7a:0d:
         67:46:c9:db:21:d1:ba:71:81:97:38:be:0f:a6:32:22:48:44:
         56:35:d6:73:ed:fc:70:84:cf:47:81:ec:70:ca:16:94:22:17:
         dc:39:d8:be:bb:14:18:29:18:2e:b5:91:60:82:0b:22:cd:93:
         7d:bd:9a:ac:66:44:2c:33:ba:76:68:44:f1:c2:ae:c0:b4:1d:
         82:79:51:c9:7e:3f:f1:05:d0:c1:0c:25:ea:71:89:f0:7f:f4:
         e8:51:32:7c:82:98:04:c1:16:25:3c:ed:29:f7:dd:58:9a:85:
         52:83:7b:19:7b:4f:b5:7e:78:2a:c5:cd:64:81:aa:f3:d6:62:
         f8:26:6e:29:28:2a:a0:3c:1b:39:6d:47:66:7c:a0:f8:55:24:
         67:0d:ef:6c:5d:71:c9:0e:5f:dd:27:30:8b:f7:d3:33:bf:54:
         c2:b9:10:5d
-----BEGIN CERTIFICATE-----
MIIEJjCCAw6gAwIBAgICEAQwDQYJKoZIhvcNAQELBQAwcDELMAkGA1UEBhMCRlIx
DDAKBgNVBAgTA0lERjEOMAwGA1UEBxMFUGFyaXMxLzAtBgNVBAoTJkxvY2FsIE5P
REUtT1BDVUEgQ2VydGlmaWNhdGUgQXV0aG9yaXR5MRIwEAYDVQQDEwlOb2RlT1BD
VUEwIhgPMjAxNjEyMjkyMDQ2MDlaGA8yMDE3MTIyOTIwNDYwOVowNTELMAkGA1UE
BhMCRlIxEjAQBgNVBAoMCU5vZGVPUENVQTESMBAGA1UEAwwJTm9kZU9QQ1VBMIGf
MA0GCSqGSIb3DQEBAQUAA4GNADCBiQKBgQDcKQV8geYXcseLcdT/tTysywSup9K4
Dwo7nSrsV83rtc+FKZX9Ylk/KsAqpuDOxWzwYbioDiqy09zIGiUilrGS3SPu6yaD
eVNLT8bKTDFA413qa3+xBWFpTNL5YSyueJBM3iywty6QeqpeAzUHUO0OqgKmyjKj
LIM2avUdARMGbwIDAQABo4IBgzCCAX8wDAYDVR0TAQH/BAIwADAdBgNVHQ4EFgQU
ojHFue2wGRclbeRK2sI61f6sfiMwgaIGA1UdIwSBmjCBl4AUBU5i8N7/W5QSTz3G
dWV0y9a1mDehdKRyMHAxCzAJBgNVBAYTAkZSMQwwCgYDVQQIEwNJREYxDjAMBgNV
BAcTBVBhcmlzMS8wLQYDVQQKEyZMb2NhbCBOT0RFLU9QQ1VBIENlcnRpZmljYXRl
IEF1dGhvcml0eTESMBAGA1UEAxMJTm9kZU9QQ1VBggkAuQS9+CXRBG4wSwYDVR0R
BEQwQoYkdXJuOmdpbGVzcy1NQlAuaG9tZTpOb2RlT1BDVUEtU2VydmVygglsb2Nh
bGhvc3SCD2dpbGVzcy1NQlAuaG9tZTAsBglghkgBhvhCAQ0EHxYdT3BlblNTTCBH
ZW5lcmF0ZWQgQ2VydGlmaWNhdGUwDgYDVR0PAQH/BAQDAgL8MCAGA1UdJQEB/wQW
MBQGCCsGAQUFBwMBBggrBgEFBQcDAjANBgkqhkiG9w0BAQsFAAOCAQEAivHVAY5L
W6ehrs8X5ZeSj+pJNhEngfUeNz6LnNPEVWvhN95n5P/lgnXV163KP73W7ieFQJ6V
Bzc6y8srfDYlJWb2mXjhc7dm1YTuBELETZ4IlfJtRiNNrnoNZ0bJ2yHRunGBlzi+
D6YyIkhEVjXWc+38cITPR4HscMoWlCIX3DnYvrsUGCkYLrWRYIILIs2Tfb2arGZE
LDO6dmhE8cKuwLQdgnlRyX4/8QXQwQwl6nGJ8H/06FEyfIKYBMEWJTztKffdWJqF
UoN7GXtPtX54KsXNZIGq89Zi+CZuKSgqoDwbOW1HZnyg+FUkZw3vbF1xyQ5f3Scw
i/fTM79UwrkQXQ==
-----END CERTIFICATE-----
-----BEGIN CERTIFICATE-----
MIIE1DCCA7ygAwIBAgIJALkEvfgl0QRuMA0GCSqGSIb3DQEBCwUAMHAxCzAJBgNV
BAYTAkZSMQwwCgYDVQQIEwNJREYxDjAMBgNVBAcTBVBhcmlzMS8wLQYDVQQKEyZM
b2NhbCBOT0RFLU9QQ1VBIENlcnRpZmljYXRlIEF1dGhvcml0eTESMBAGA1UEAxMJ
Tm9kZU9QQ1VBMB4XDTE2MTIzMDIwNDYwOVoXDTI2MTIyODIwNDYwOVowcDELMAkG
A1UEBhMCRlIxDDAKBgNVBAgTA0lERjEOMAwGA1UEBxMFUGFyaXMxLzAtBgNVBAoT
JkxvY2FsIE5PREUtT1BDVUEgQ2VydGlmaWNhdGUgQXV0aG9yaXR5MRIwEAYDVQQD
EwlOb2RlT1BDVUEwggEiMA0GCSqGSIb3DQEBAQUAA4IBDwAwggEKAoIBAQDTQR6i
L/DWY8NVMvCA8FFDPKkj0xkg1HkBcJcssKfNYetk8QNYwbU5OQGa43GQ1Xj6yfRE
LpnGYJc/cnMQYaV2amJmx4ml8sa54iNJG6VGArwg3b7UUwk4thdZP2U6UaWwnrSb
M63nD/Iy6w9meysrWdu/HbUfUkexRlZ2YRZKGrOVbCQ5xdzKZVWdp5lAs1Nj+j2x
ViRxJLCWsD2p/rJjDt/XlxePm74dMZIECONP6c9HmguU3EJzmIwL5GtTs76FIl/i
zWOET/X/FW02UtHjb+Byp1jeWbDLbWO4u7TQc084YTCLsf+Ugfwgw4DZ+VDpjwgo
AnQ6ugB4Z7gYQo19AgMBAAGjggFvMIIBazAdBgNVHQ4EFgQUBU5i8N7/W5QSTz3G
dWV0y9a1mDcwgaIGA1UdIwSBmjCBl4AUBU5i8N7/W5QSTz3GdWV0y9a1mDehdKRy
MHAxCzAJBgNVBAYTAkZSMQwwCgYDVQQIEwNJREYxDjAMBgNVBAcTBVBhcmlzMS8w
LQYDVQQKEyZMb2NhbCBOT0RFLU9QQ1VBIENlcnRpZmljYXRlIEF1dGhvcml0eTES
MBAGA1UEAxMJTm9kZU9QQ1VBggkAuQS9+CXRBG4wDAYDVR0TBAUwAwEB/zAOBgNV
HQ8BAf8EBAMCAQYwVwYJYIZIAYb4QgENBEoWSENBIENlcnRpZmljYXRlIGdlbmVy
YXRlZCBieSBOb2RlLU9QQ1VBIENlcnRpZmljYXRlIHV0aWxpdHkgdXNpbmcgb3Bl
bnNzbDAuBgNVHR8EJzAlMCOgIaAfhh1odHRwOi8vbG9jYWxob3N0Ojg5MDAvY3Js
LnBlbTANBgkqhkiG9w0BAQsFAAOCAQEAd6TsXBRK7rqzM6PWr8c3ZC3srIofVNf7
zEK7UfgY4NTZ++Jgpjy6w+LOADbpSqdF4mKHTFItajjT9t0fCxKR8tSaGY5VeyfF
p3xvKbM9iVUpKiRn5LGyVi+a1gXuhxKPeFO4HExz/BV4bgU7PaydnVfDF9MUevzy
osR+jJaICYy7OK7vlRhiJoR4iprYJSeJZK6l8MVEwhZb3MWSXnbBx4kGp5tw1dko
w0Ewb2eXYuQTrUBqTZwSUcSvl9XKky8ZofBvytHP7qyFwV2XynUGHbSDnlRYuYmr
8BGVtuXRXejSOZlDOdRgcEeYLKveCG9U5GZzNwogMOZXD2M7UJMycw==
-----END CERTIFICATE-----
