Certificate Request:
    Data:
        Version: 0 (0x0)
        Subject: C=FR, O=NodeOPCUA, CN=NodeOPCUA
        Subject Public Key Info:
            Public Key Algorithm: rsaEncryption
                Public-Key: (2048 bit)
                Modulus:
                    00:e3:21:b1:43:1e:e0:b4:5b:46:d1:d4:fe:3a:46:
                    5f:4f:27:67:45:78:f9:4f:cf:53:e2:d4:42:fd:80:
                    7d:c6:a8:90:d8:9b:bb:07:c5:03:b9:7e:7f:73:f2:
                    fa:b6:b9:6c:7e:5b:64:67:5c:ce:59:a8:1c:cf:fd:
                    df:98:a9:b7:40:f3:7f:af:b8:88:6a:6f:ac:6b:16:
                    98:d6:d9:19:ad:d1:ee:88:32:29:e2:cd:ad:1a:5b:
                    0a:e3:c4:12:be:99:e2:0f:e7:91:8a:29:72:b9:aa:
                    98:76:c8:80:09:fe:a6:6e:d1:a2:02:6b:f3:7e:bf:
                    e3:ab:f0:89:83:6c:9a:66:70:11:79:a5:3b:3f:0f:
                    33:d3:58:32:3c:0e:3d:a3:e5:6d:fe:80:0a:dc:4e:
                    2a:d8:8b:88:0b:16:0a:24:10:54:1a:da:fb:fc:34:
                    1f:3a:92:ab:d4:17:1b:7c:61:43:cd:ce:06:04:51:
                    f2:50:13:fe:bc:9b:e3:a4:8b:5f:f9:d0:b9:5a:2a:
                    dc:b7:db:57:3c:da:5c:b7:21:09:60:c5:cd:85:c5:
                    a1:16:8d:e7:c2:05:70:53:98:82:fa:be:6a:e5:dd:
                    30:d0:e9:32:23:ac:7c:df:4b:40:7b:c7:74:30:78:
                    7d:e5:51:b7:5b:c4:31:58:a6:28:8c:a3:55:a9:36:
                    a4:0b
                Exponent: 65537 (0x10001)
        Attributes:
        Requested Extensions:
            X509v3 Basic Constraints: 
                CA:FALSE
            X509v3 Key Usage: critical
                Certificate Sign, CRL Sign
            X509v3 Subject Alternative Name: 
                URI:undefined, DNS:, DNS:, DNS:, DNS:, DNS:
    Signature Algorithm: sha256WithRSAEncryption
         c8:a6:3b:74:7b:ad:ee:7f:90:18:a5:c5:5e:c8:50:33:20:b2:
         43:60:d5:2f:75:a2:48:30:32:06:65:2c:54:69:b0:65:c7:a9:
         48:6e:25:e8:5d:d0:66:5d:3f:c7:2c:a1:f4:aa:47:ac:a0:04:
         37:c3:7d:f3:1d:6e:ab:c9:01:cc:28:fb:92:76:08:b4:0d:ae:
         90:a0:1a:96:d3:ff:60:e0:5c:62:93:ee:2c:1c:22:3d:3f:b3:
         68:b7:53:b3:04:ac:7e:8e:39:61:c0:20:d4:8e:f1:c8:ee:d8:
         29:74:35:35:c1:ee:41:ee:42:ea:43:02:77:00:d6:df:56:86:
         e7:69:28:08:5b:45:c5:c2:42:68:7f:4a:b9:7b:12:fa:11:b3:
         82:f4:98:b1:60:fc:15:dc:58:a8:70:c7:77:44:2d:05:85:bb:
         47:e8:72:c9:c8:46:b8:05:da:9b:0a:89:97:1a:64:fd:80:2d:
         93:28:3f:bf:61:7d:f9:ee:99:c6:e1:8b:65:ae:48:dd:16:1a:
         77:56:e5:2c:0a:e5:d5:89:8d:12:7b:6f:40:e9:d3:4e:0c:68:
         85:53:5a:ad:7a:0c:25:08:ad:d8:61:e7:c2:26:03:96:d2:14:
         1e:5e:34:70:05:0f:11:27:8a:fd:3b:94:66:fc:78:70:fa:ca:
         cc:c4:c4:e4
-----BEGIN CERTIFICATE REQUEST-----
MIICxjCCAa4CAQAwNTELMAkGA1UEBhMCRlIxEjAQBgNVBAoMCU5vZGVPUENVQTES
MBAGA1UEAwwJTm9kZU9QQ1VBMIIBIjANBgkqhkiG9w0BAQEFAAOCAQ8AMIIBCgKC
AQEA4yGxQx7gtFtG0dT+OkZfTydnRXj5T89T4tRC/YB9xqiQ2Ju7B8UDuX5/c/L6
trlsfltkZ1zOWagcz/3fmKm3QPN/r7iIam+saxaY1tkZrdHuiDIp4s2tGlsK48QS
vpniD+eRiilyuaqYdsiACf6mbtGiAmvzfr/jq/CJg2yaZnAReaU7Pw8z01gyPA49
o+Vt/oAK3E4q2IuICxYKJBBUGtr7/DQfOpKr1BcbfGFDzc4GBFHyUBP+vJvjpItf
+dC5Wirct9tXPNpctyEJYMXNhcWhFo3nwgVwU5iC+r5q5d0w0OkyI6x830tAe8d0
MHh95VG3W8QxWKYojKNVqTakCwIDAQABoEwwSgYJKoZIhvcNAQkOMT0wOzAJBgNV
HRMEAjAAMA4GA1UdDwEB/wQEAwIBBjAeBgNVHREEFzAVhgl1bmRlZmluZWSCAIIA
ggCCAIIAMA0GCSqGSIb3DQEBCwUAA4IBAQDIpjt0e63uf5AYpcVeyFAzILJDYNUv
daJIMDIGZSxUabBlx6lIbiXoXdBmXT/HLKH0qkesoAQ3w33zHW6ryQHMKPuSdgi0
Da6QoBqW0/9g4Fxik+4sHCI9P7Not1OzBKx+jjlhwCDUjvHI7tgpdDU1we5B7kLq
QwJ3ANbfVobnaSgIW0XFwkJof0q5exL6EbOC9JixYPwV3FiocMd3RC0FhbtH6HLJ
yEa4BdqbComXGmT9gC2TKD+/YX357pnG4YtlrkjdFhp3VuUsCuXViY0Se29A6dNO
DGiFU1qtegwlCK3YYefCJgOW0hQeXjRwBQ8RJ4r9O5Rm/Hhw+srMxMTk
-----END CERTIFICATE REQUEST-----
