Certificate:
    Data:
        Version: 3 (0x2)
        Serial Number: 4103 (0x1007)
    Signature Algorithm: sha256WithRSAEncryption
        Issuer: O=NodeOPCUA, CN=NodeOPCUA
        Validity
            Not Before: Dec 29 20:46:09 2016 GMT
            Not After : Dec 29 20:46:09 2017 GMT
        Subject: O=NodeOPCUA, CN=NodeOPCUA
        Subject Public Key Info:
            Public Key Algorithm: rsaEncryption
                Public-Key: (2048 bit)
                Modulus:
                    00:e3:21:b1:43:1e:e0:b4:5b:46:d1:d4:fe:3a:46:
                    5f:4f:27:67:45:78:f9:4f:cf:53:e2:d4:42:fd:80:
                    7d:c6:a8:90:d8:9b:bb:07:c5:03:b9:7e:7f:73:f2:
                    fa:b6:b9:6c:7e:5b:64:67:5c:ce:59:a8:1c:cf:fd:
                    df:98:a9:b7:40:f3:7f:af:b8:88:6a:6f:ac:6b:16:
                    98:d6:d9:19:ad:d1:ee:88:32:29:e2:cd:ad:1a:5b:
                    0a:e3:c4:12:be:99:e2:0f:e7:91:8a:29:72:b9:aa:
                    98:76:c8:80:09:fe:a6:6e:d1:a2:02:6b:f3:7e:bf:
                    e3:ab:f0:89:83:6c:9a:66:70:11:79:a5:3b:3f:0f:
                    33:d3:58:32:3c:0e:3d:a3:e5:6d:fe:80:0a:dc:4e:
                    2a:d8:8b:88:0b:16:0a:24:10:54:1a:da:fb:fc:34:
                    1f:3a:92:ab:d4:17:1b:7c:61:43:cd:ce:06:04:51:
                    f2:50:13:fe:bc:9b:e3:a4:8b:5f:f9:d0:b9:5a:2a:
                    dc:b7:db:57:3c:da:5c:b7:21:09:60:c5:cd:85:c5:
                    a1:16:8d:e7:c2:05:70:53:98:82:fa:be:6a:e5:dd:
                    30:d0:e9:32:23:ac:7c:df:4b:40:7b:c7:74:30:78:
                    7d:e5:51:b7:5b:c4:31:58:a6:28:8c:a3:55:a9:36:
                    a4:0b
                Exponent: 65537 (0x10001)
        X509v3 extensions:
            X509v3 Basic Constraints: critical
                CA:FALSE
            X509v3 Subject Key Identifier: 
                27:C8:5C:98:3B:51:DE:DD:EC:EF:68:C2:3D:29:1F:BD:EC:32:47:EC
            X509v3 Authority Key Identifier: 
                keyid:27:C8:5C:98:3B:51:DE:DD:EC:EF:68:C2:3D:29:1F:BD:EC:32:47:EC
                DirName:/O=NodeOPCUA/CN=NodeOPCUA
                serial:10:07

            X509v3 Subject Alternative Name: 
                URI:urn:giless-MBP.home:NodeOPCUA-Server, DNS:localhost, DNS:giless-MBP.home
            Netscape Comment: 
                OpenSSL Generated Certificate
            X509v3 Key Usage: critical
                Digital Signature, Non Repudiation, Key Encipherment, Data Encipherment, Key Agreement, Certificate Sign
            X509v3 Extended Key Usage: critical
                TLS Web Server Authentication, TLS Web Client Authentication
    Signature Algorithm: sha256WithRSAEncryption
         44:dc:e1:22:0d:97:e0:0a:18:dc:03:2f:57:21:a8:9b:be:2b:
         a7:6b:35:2e:c3:15:27:66:33:8a:ce:7c:f9:29:d4:78:c8:f8:
         fc:89:44:8f:b2:c0:ed:81:9b:6d:32:95:1d:4e:77:92:17:1e:
         27:4b:42:3e:54:6e:f6:e2:51:81:5d:89:f6:3b:0e:1e:25:2f:
         6d:8d:8d:a6:7b:e1:a7:30:d1:c9:27:97:48:17:01:0b:5c:85:
         89:b0:d7:49:c0:c4:37:e4:16:68:d9:32:d7:bc:b0:73:39:bb:
         0d:ce:3c:5c:b0:1e:b7:75:a8:37:79:97:dd:b1:1c:5e:f4:cf:
         1b:57:15:21:ff:dd:db:4d:4f:c2:95:a2:0f:ce:de:55:2a:1f:
         eb:a9:10:54:0f:35:c8:45:4e:a9:aa:4c:2e:fa:cb:75:6b:1c:
         d9:e0:f4:be:a1:1d:89:24:e5:61:64:5b:d2:a5:e9:c2:a0:3e:
         7b:06:33:fc:e4:b0:17:d3:7e:aa:9e:b5:32:82:3b:b3:34:6a:
         d2:5c:58:51:d7:86:62:0e:28:ac:c7:74:ef:96:b9:d7:b3:d5:
         0b:29:a6:dd:bc:0f:46:61:90:3c:87:4f:d5:81:f7:3e:78:b6:
         5d:a7:ad:66:1e:e9:af:04:f5:ff:e4:72:50:49:27:50:36:1c:
         f4:9c:a7:bc
-----BEGIN CERTIFICATE-----
MIIEAzCCAuugAwIBAgICEAcwDQYJKoZIhvcNAQELBQAwKDESMBAGA1UEChMJTm9k
ZU9QQ1VBMRIwEAYDVQQDEwlOb2RlT1BDVUEwIhgPMjAxNjEyMjkyMDQ2MDlaGA8y
MDE3MTIyOTIwNDYwOVowKDESMBAGA1UEChMJTm9kZU9QQ1VBMRIwEAYDVQQDEwlO
b2RlT1BDVUEwggEiMA0GCSqGSIb3DQEBAQUAA4IBDwAwggEKAoIBAQDjIbFDHuC0
W0bR1P46Rl9PJ2dFePlPz1Pi1EL9gH3GqJDYm7sHxQO5fn9z8vq2uWx+W2RnXM5Z
qBzP/d+YqbdA83+vuIhqb6xrFpjW2Rmt0e6IMiniza0aWwrjxBK+meIP55GKKXK5
qph2yIAJ/qZu0aICa/N+v+Or8ImDbJpmcBF5pTs/DzPTWDI8Dj2j5W3+gArcTirY
i4gLFgokEFQa2vv8NB86kqvUFxt8YUPNzgYEUfJQE/68m+Oki1/50LlaKty321c8
2ly3IQlgxc2FxaEWjefCBXBTmIL6vmrl3TDQ6TIjrHzfS0B7x3QweH3lUbdbxDFY
piiMo1WpNqQLAgMBAAGjggExMIIBLTAMBgNVHRMBAf8EAjAAMB0GA1UdDgQWBBQn
yFyYO1He3ezvaMI9KR+97DJH7DBRBgNVHSMESjBIgBQnyFyYO1He3ezvaMI9KR+9
7DJH7KEspCowKDESMBAGA1UEChMJTm9kZU9QQ1VBMRIwEAYDVQQDEwlOb2RlT1BD
VUGCAhAHMEsGA1UdEQREMEKGJHVybjpnaWxlc3MtTUJQLmhvbWU6Tm9kZU9QQ1VB
LVNlcnZlcoIJbG9jYWxob3N0gg9naWxlc3MtTUJQLmhvbWUwLAYJYIZIAYb4QgEN
BB8WHU9wZW5TU0wgR2VuZXJhdGVkIENlcnRpZmljYXRlMA4GA1UdDwEB/wQEAwIC
/DAgBgNVHSUBAf8EFjAUBggrBgEFBQcDAQYIKwYBBQUHAwIwDQYJKoZIhvcNAQEL
BQADggEBAETc4SINl+AKGNwDL1chqJu+K6drNS7DFSdmM4rOfPkp1HjI+PyJRI+y
wO2Bm20ylR1Od5IXHidLQj5UbvbiUYFdifY7Dh4lL22NjaZ74acw0cknl0gXAQtc
hYmw10nAxDfkFmjZMte8sHM5uw3OPFywHrd1qDd5l92xHF70zxtXFSH/3dtNT8KV
og/O3lUqH+upEFQPNchFTqmqTC76y3VrHNng9L6hHYkk5WFkW9Kl6cKgPnsGM/zk
sBfTfqqetTKCO7M0atJcWFHXhmIOKKzHdO+Wudez1Qsppt28D0ZhkDyHT9WB9z54
tl2nrWYe6a8E9f/kclBJJ1A2HPScp7w=
-----END CERTIFICATE-----
