Certificate Request:
    Data:
        Version: 0 (0x0)
        Subject: C=FR, ST=IDF, L=Paris, O=Local NODE-OPCUA Certificate Authority, CN=NodeOPCUA
        Subject Public Key Info:
            Public Key Algorithm: rsaEncryption
                Public-Key: (2048 bit)
                Modulus:
                    00:d3:41:1e:a2:2f:f0:d6:63:c3:55:32:f0:80:f0:
                    51:43:3c:a9:23:d3:19:20:d4:79:01:70:97:2c:b0:
                    a7:cd:61:eb:64:f1:03:58:c1:b5:39:39:01:9a:e3:
                    71:90:d5:78:fa:c9:f4:44:2e:99:c6:60:97:3f:72:
                    73:10:61:a5:76:6a:62:66:c7:89:a5:f2:c6:b9:e2:
                    23:49:1b:a5:46:02:bc:20:dd:be:d4:53:09:38:b6:
                    17:59:3f:65:3a:51:a5:b0:9e:b4:9b:33:ad:e7:0f:
                    f2:32:eb:0f:66:7b:2b:2b:59:db:bf:1d:b5:1f:52:
                    47:b1:46:56:76:61:16:4a:1a:b3:95:6c:24:39:c5:
                    dc:ca:65:55:9d:a7:99:40:b3:53:63:fa:3d:b1:56:
                    24:71:24:b0:96:b0:3d:a9:fe:b2:63:0e:df:d7:97:
                    17:8f:9b:be:1d:31:92:04:08:e3:4f:e9:cf:47:9a:
                    0b:94:dc:42:73:98:8c:0b:e4:6b:53:b3:be:85:22:
                    5f:e2:cd:63:84:4f:f5:ff:15:6d:36:52:d1:e3:6f:
                    e0:72:a7:58:de:59:b0:cb:6d:63:b8:bb:b4:d0:73:
                    4f:38:61:30:8b:b1:ff:94:81:fc:20:c3:80:d9:f9:
                    50:e9:8f:08:28:02:74:3a:ba:00:78:67:b8:18:42:
                    8d:7d
                Exponent: 65537 (0x10001)
        Attributes:
        Requested Extensions:
            X509v3 Basic Constraints: critical
                CA:FALSE
            X509v3 Key Usage: 
                Digital Signature, Non Repudiation, Key Encipherment, Data Encipherment, Key Agreement
            X509v3 Subject Alternative Name: 
                URI:undefined, DNS:, DNS:
            Netscape Comment: 
                CA Generated by Node-OPCUA Certificate utility using openssl
    Signature Algorithm: sha256WithRSAEncryption
         c9:de:50:65:0f:6b:82:12:50:12:77:71:ff:69:54:db:f9:6e:
         70:cd:66:16:b7:0e:55:84:e1:3d:0f:67:04:26:36:97:ef:0f:
         d6:97:68:47:a9:b5:22:77:8a:fe:85:ec:21:44:02:c0:b3:5b:
         29:48:21:59:83:12:bb:08:6d:0e:7f:4c:63:7b:cd:ec:5b:8d:
         ba:81:fd:19:75:4c:2c:9a:6e:10:52:e1:08:19:51:fd:dd:48:
         c3:56:ae:3a:44:cb:75:b4:ee:7e:f3:4f:aa:3e:fb:80:30:c7:
         01:86:f3:42:f2:63:28:54:ab:0c:0b:7e:64:d6:f6:26:e7:30:
         de:11:f9:8f:1a:05:44:cc:27:f6:f5:8d:c4:7a:e3:89:49:5f:
         d6:4a:4a:51:66:bd:39:1e:a0:6a:07:e8:f3:b1:48:b5:f4:da:
         a4:40:57:a9:71:4a:ff:8a:f5:d8:4b:2b:9a:56:9a:df:02:db:
         31:85:b5:40:07:7b:71:02:08:e4:4b:18:11:14:50:d5:87:fb:
         7b:06:74:93:5c:a9:e1:5e:dd:24:d3:a3:99:84:53:fa:ca:31:
         41:e6:68:81:11:ef:77:76:6d:9d:33:10:9c:17:1f:21:b9:82:
         1f:68:f4:1c:9c:ed:93:4c:bf:25:92:42:e2:84:fc:f6:df:3f:
         e7:52:66:38
-----BEGIN CERTIFICATE REQUEST-----
MIIDTDCCAjQCAQAwcDELMAkGA1UEBhMCRlIxDDAKBgNVBAgTA0lERjEOMAwGA1UE
BxMFUGFyaXMxLzAtBgNVBAoTJkxvY2FsIE5PREUtT1BDVUEgQ2VydGlmaWNhdGUg
QXV0aG9yaXR5MRIwEAYDVQQDEwlOb2RlT1BDVUEwggEiMA0GCSqGSIb3DQEBAQUA
A4IBDwAwggEKAoIBAQDTQR6iL/DWY8NVMvCA8FFDPKkj0xkg1HkBcJcssKfNYetk
8QNYwbU5OQGa43GQ1Xj6yfRELpnGYJc/cnMQYaV2amJmx4ml8sa54iNJG6VGArwg
3b7UUwk4thdZP2U6UaWwnrSbM63nD/Iy6w9meysrWdu/HbUfUkexRlZ2YRZKGrOV
bCQ5xdzKZVWdp5lAs1Nj+j2xViRxJLCWsD2p/rJjDt/XlxePm74dMZIECONP6c9H
mguU3EJzmIwL5GtTs76FIl/izWOET/X/FW02UtHjb+Byp1jeWbDLbWO4u7TQc084
YTCLsf+Ugfwgw4DZ+VDpjwgoAnQ6ugB4Z7gYQo19AgMBAAGggZYwgZMGCSqGSIb3
DQEJDjGBhTCBgjAMBgNVHRMBAf8EAjAAMAsGA1UdDwQEAwID+DAYBgNVHREEETAP
hgl1bmRlZmluZWSCAIIAMEsGCWCGSAGG+EIBDQQ+FjxDQSBHZW5lcmF0ZWQgYnkg
Tm9kZS1PUENVQSBDZXJ0aWZpY2F0ZSB1dGlsaXR5IHVzaW5nIG9wZW5zc2wwDQYJ
KoZIhvcNAQELBQADggEBAMneUGUPa4ISUBJ3cf9pVNv5bnDNZha3DlWE4T0PZwQm
NpfvD9aXaEeptSJ3iv6F7CFEAsCzWylIIVmDErsIbQ5/TGN7zexbjbqB/Rl1TCya
bhBS4QgZUf3dSMNWrjpEy3W07n7zT6o++4AwxwGG80LyYyhUqwwLfmTW9ibnMN4R
+Y8aBUTMJ/b1jcR644lJX9ZKSlFmvTkeoGoH6POxSLX02qRAV6lxSv+K9dhLK5pW
mt8C2zGFtUAHe3ECCORLGBEUUNWH+3sGdJNcqeFe3STTo5mEU/rKMUHmaIER73d2
bZ0zEJwXHyG5gh9o9Byc7ZNMvyWSQuKE/PbfP+dSZjg=
-----END CERTIFICATE REQUEST-----
