Certificate:
    Data:
        Version: 3 (0x2)
        Serial Number: 4096 (0x1000)
    Signature Algorithm: sha256WithRSAEncryption
        Issuer: C=FR, ST=IDF, L=Paris, O=Local NODE-OPCUA Certificate Authority, CN=NodeOPCUA
        Validity
            Not Before: Dec 29 20:46:09 2016 GMT
            Not After : Dec 29 20:46:09 2017 GMT
        Subject: C=FR, O=NodeOPCUA, CN=NodeOPCUA
        Subject Public Key Info:
            Public Key Algorithm: rsaEncryption
                Public-Key: (1024 bit)
                Modulus:
                    00:de:b7:68:9f:cc:c9:82:50:ac:2b:35:a6:ca:b8:
                    01:84:25:d2:dc:fe:3a:7b:54:9f:96:6d:d0:b7:77:
                    48:a4:e4:5a:b1:c0:f4:80:a7:22:01:4a:3e:0c:c8:
                    68:e3:19:c3:67:42:c6:74:ee:52:dc:83:21:91:2b:
                    b9:0d:71:8e:6d:ce:63:bc:47:58:d0:98:28:2f:64:
                    14:8f:2c:07:6b:c0:33:a8:28:35:b0:51:cc:7e:c7:
                    a1:3d:2c:12:43:31:a9:d6:46:03:46:12:39:94:92:
                    e8:d1:91:06:58:8c:7e:38:1e:1c:2b:fc:18:99:a1:
                    da:b6:05:6a:e2:15:a5:73:b7
                Exponent: 65537 (0x10001)
        X509v3 extensions:
            X509v3 Basic Constraints: critical
                CA:FALSE
            X509v3 Subject Key Identifier: 
                E5:08:AA:51:3A:86:BE:01:F2:D7:4A:86:AE:BC:62:88:92:B7:8A:A6
            X509v3 Authority Key Identifier: 
                keyid:05:4E:62:F0:DE:FF:5B:94:12:4F:3D:C6:75:65:74:CB:D6:B5:98:37
                DirName:/C=FR/ST=IDF/L=Paris/O=Local NODE-OPCUA Certificate Authority/CN=NodeOPCUA
                serial:B9:04:BD:F8:25:D1:04:6E

            X509v3 Subject Alternative Name: 
                URI:urn:giless-MBP.home:NodeOPCUA-Client, DNS:localhost, DNS:giless-MBP.home
            Netscape Comment: 
                OpenSSL Generated Certificate
            X509v3 Key Usage: critical
                Digital Signature, Non Repudiation, Key Encipherment, Data Encipherment, Key Agreement, Certificate Sign
            X509v3 Extended Key Usage: critical
                TLS Web Server Authentication, TLS Web Client Authentication
    Signature Algorithm: sha256WithRSAEncryption
         bb:11:86:69:8a:7a:82:73:9f:9f:95:e7:8b:fd:51:f7:c2:a7:
         6e:c5:5b:e7:77:a9:42:bf:9f:83:49:b0:38:e8:c7:a3:bf:98:
         39:d2:db:0a:9b:c8:95:12:cd:df:f6:3c:e9:ef:cc:80:ba:4c:
         da:24:d9:06:91:fa:dd:92:68:c6:f7:46:7c:dd:6a:bc:e0:3b:
         1e:bc:a1:92:bf:f3:91:52:2b:fd:c2:62:95:3a:e7:07:7e:17:
         a9:74:0b:26:3b:ec:3a:60:8b:25:21:25:d0:3c:71:2e:72:61:
         23:bb:cd:79:f8:db:f2:1f:a2:14:9c:f1:b4:e6:54:10:3c:9d:
         08:5a:ee:38:5b:24:d9:bc:d7:58:47:82:6a:7b:c4:58:6e:9f:
         3d:74:2e:6c:e1:a3:15:1f:45:fa:5f:ca:cd:15:2a:6a:d1:e1:
         6e:69:5c:e5:27:f9:23:05:fe:0a:db:a0:f7:cc:8c:5a:27:b4:
         ed:ea:c6:7d:98:89:c4:be:ab:06:6e:dc:5f:4a:5b:50:d7:7f:
         79:9e:b0:63:bc:7a:8a:5c:c9:4e:fa:55:8b:a6:5a:c2:9b:c3:
         00:b4:7f:17:1a:d0:8f:40:9d:0e:92:01:ff:5c:d8:9c:c2:bb:
         5a:a1:19:82:13:8d:af:46:f0:11:ec:12:de:16:4c:bc:fc:33:
         d1:93:55:fe
-----BEGIN CERTIFICATE-----
MIIEJjCCAw6gAwIBAgICEAAwDQYJKoZIhvcNAQELBQAwcDELMAkGA1UEBhMCRlIx
DDAKBgNVBAgTA0lERjEOMAwGA1UEBxMFUGFyaXMxLzAtBgNVBAoTJkxvY2FsIE5P
REUtT1BDVUEgQ2VydGlmaWNhdGUgQXV0aG9yaXR5MRIwEAYDVQQDEwlOb2RlT1BD
VUEwIhgPMjAxNjEyMjkyMDQ2MDlaGA8yMDE3MTIyOTIwNDYwOVowNTELMAkGA1UE
BhMCRlIxEjAQBgNVBAoMCU5vZGVPUENVQTESMBAGA1UEAwwJTm9kZU9QQ1VBMIGf
MA0GCSqGSIb3DQEBAQUAA4GNADCBiQKBgQDet2ifzMmCUKwrNabKuAGEJdLc/jp7
VJ+WbdC3d0ik5FqxwPSApyIBSj4MyGjjGcNnQsZ07lLcgyGRK7kNcY5tzmO8R1jQ
mCgvZBSPLAdrwDOoKDWwUcx+x6E9LBJDManWRgNGEjmUkujRkQZYjH44Hhwr/BiZ
odq2BWriFaVztwIDAQABo4IBgzCCAX8wDAYDVR0TAQH/BAIwADAdBgNVHQ4EFgQU
5QiqUTqGvgHy10qGrrxiiJK3iqYwgaIGA1UdIwSBmjCBl4AUBU5i8N7/W5QSTz3G
dWV0y9a1mDehdKRyMHAxCzAJBgNVBAYTAkZSMQwwCgYDVQQIEwNJREYxDjAMBgNV
BAcTBVBhcmlzMS8wLQYDVQQKEyZMb2NhbCBOT0RFLU9QQ1VBIENlcnRpZmljYXRl
IEF1dGhvcml0eTESMBAGA1UEAxMJTm9kZU9QQ1VBggkAuQS9+CXRBG4wSwYDVR0R
BEQwQoYkdXJuOmdpbGVzcy1NQlAuaG9tZTpOb2RlT1BDVUEtQ2xpZW50gglsb2Nh
bGhvc3SCD2dpbGVzcy1NQlAuaG9tZTAsBglghkgBhvhCAQ0EHxYdT3BlblNTTCBH
ZW5lcmF0ZWQgQ2VydGlmaWNhdGUwDgYDVR0PAQH/BAQDAgL8MCAGA1UdJQEB/wQW
MBQGCCsGAQUFBwMBBggrBgEFBQcDAjANBgkqhkiG9w0BAQsFAAOCAQEAuxGGaYp6
gnOfn5Xni/1R98KnbsVb53epQr+fg0mwOOjHo7+YOdLbCpvIlRLN3/Y86e/MgLpM
2iTZBpH63ZJoxvdGfN1qvOA7Hryhkr/zkVIr/cJilTrnB34XqXQLJjvsOmCLJSEl
0DxxLnJhI7vNefjb8h+iFJzxtOZUEDydCFruOFsk2bzXWEeCanvEWG6fPXQubOGj
FR9F+l/KzRUqatHhbmlc5Sf5IwX+Ctug98yMWie07erGfZiJxL6rBm7cX0pbUNd/
eZ6wY7x6ilzJTvpVi6ZawpvDALR/FxrQj0CdDpIB/1zYnMK7WqEZghONr0bwEewS
3hZMvPwz0ZNV/g==
-----END CERTIFICATE-----
