Certificate:
    Data:
        Version: 3 (0x2)
        Serial Number: 4097 (0x1001)
    Signature Algorithm: sha256WithRSAEncryption
        Issuer: O=NodeOPCUA, CN=NodeOPCUA
        Validity
            Not Before: Dec 29 20:46:09 2016 GMT
            Not After : Dec 29 20:46:09 2017 GMT
        Subject: O=NodeOPCUA, CN=NodeOPCUA
        Subject Public Key Info:
            Public Key Algorithm: rsaEncryption
                Public-Key: (1024 bit)
                Modulus:
                    00:de:b7:68:9f:cc:c9:82:50:ac:2b:35:a6:ca:b8:
                    01:84:25:d2:dc:fe:3a:7b:54:9f:96:6d:d0:b7:77:
                    48:a4:e4:5a:b1:c0:f4:80:a7:22:01:4a:3e:0c:c8:
                    68:e3:19:c3:67:42:c6:74:ee:52:dc:83:21:91:2b:
                    b9:0d:71:8e:6d:ce:63:bc:47:58:d0:98:28:2f:64:
                    14:8f:2c:07:6b:c0:33:a8:28:35:b0:51:cc:7e:c7:
                    a1:3d:2c:12:43:31:a9:d6:46:03:46:12:39:94:92:
                    e8:d1:91:06:58:8c:7e:38:1e:1c:2b:fc:18:99:a1:
                    da:b6:05:6a:e2:15:a5:73:b7
                Exponent: 65537 (0x10001)
        X509v3 extensions:
            X509v3 Basic Constraints: critical
                CA:FALSE
            X509v3 Subject Key Identifier: 
                E5:08:AA:51:3A:86:BE:01:F2:D7:4A:86:AE:BC:62:88:92:B7:8A:A6
            X509v3 Authority Key Identifier: 
                keyid:E5:08:AA:51:3A:86:BE:01:F2:D7:4A:86:AE:BC:62:88:92:B7:8A:A6
                DirName:/O=NodeOPCUA/CN=NodeOPCUA
                serial:10:01

            X509v3 Subject Alternative Name: 
                URI:urn:giless-MBP.home:NodeOPCUA-Client, DNS:localhost, DNS:giless-MBP.home
            Netscape Comment: 
                OpenSSL Generated Certificate
            X509v3 Key Usage: critical
                Digital Signature, Non Repudiation, Key Encipherment, Data Encipherment, Key Agreement, Certificate Sign
            X509v3 Extended Key Usage: critical
                TLS Web Server Authentication, TLS Web Client Authentication
    Signature Algorithm: sha256WithRSAEncryption
         0c:53:07:59:fc:da:21:22:8e:7c:c2:06:36:15:e4:f9:d4:fe:
         c1:ca:dd:0a:bf:98:c2:e1:28:d3:a2:80:44:12:ee:13:9b:6f:
         e7:21:f9:06:b0:95:14:01:85:7b:8f:85:8a:2c:f5:8d:97:86:
         60:b3:c4:fb:86:83:ce:56:04:c1:96:43:3d:6f:85:13:82:e2:
         ff:d4:3a:ad:ad:83:d8:e3:34:88:67:5f:8c:b2:2a:35:97:e6:
         1f:80:01:86:e2:ea:3a:a1:86:5a:ff:7d:54:8f:db:38:56:f5:
         76:f3:4f:3c:67:d8:a5:c1:fd:78:17:05:04:ee:91:0b:3f:78:
         f6:2d
-----BEGIN CERTIFICATE-----
MIIC/jCCAmegAwIBAgICEAEwDQYJKoZIhvcNAQELBQAwKDESMBAGA1UEChMJTm9k
ZU9QQ1VBMRIwEAYDVQQDEwlOb2RlT1BDVUEwIhgPMjAxNjEyMjkyMDQ2MDlaGA8y
MDE3MTIyOTIwNDYwOVowKDESMBAGA1UEChMJTm9kZU9QQ1VBMRIwEAYDVQQDEwlO
b2RlT1BDVUEwgZ8wDQYJKoZIhvcNAQEBBQADgY0AMIGJAoGBAN63aJ/MyYJQrCs1
psq4AYQl0tz+OntUn5Zt0Ld3SKTkWrHA9ICnIgFKPgzIaOMZw2dCxnTuUtyDIZEr
uQ1xjm3OY7xHWNCYKC9kFI8sB2vAM6goNbBRzH7HoT0sEkMxqdZGA0YSOZSS6NGR
BliMfjgeHCv8GJmh2rYFauIVpXO3AgMBAAGjggExMIIBLTAMBgNVHRMBAf8EAjAA
MB0GA1UdDgQWBBTlCKpROoa+AfLXSoauvGKIkreKpjBRBgNVHSMESjBIgBTlCKpR
Ooa+AfLXSoauvGKIkreKpqEspCowKDESMBAGA1UEChMJTm9kZU9QQ1VBMRIwEAYD
VQQDEwlOb2RlT1BDVUGCAhABMEsGA1UdEQREMEKGJHVybjpnaWxlc3MtTUJQLmhv
bWU6Tm9kZU9QQ1VBLUNsaWVudIIJbG9jYWxob3N0gg9naWxlc3MtTUJQLmhvbWUw
LAYJYIZIAYb4QgENBB8WHU9wZW5TU0wgR2VuZXJhdGVkIENlcnRpZmljYXRlMA4G
A1UdDwEB/wQEAwIC/DAgBgNVHSUBAf8EFjAUBggrBgEFBQcDAQYIKwYBBQUHAwIw
DQYJKoZIhvcNAQELBQADgYEADFMHWfzaISKOfMIGNhXk+dT+wcrdCr+YwuEo06KA
RBLuE5tv5yH5BrCVFAGFe4+Fiiz1jZeGYLPE+4aDzlYEwZZDPW+FE4Li/9Q6ra2D
2OM0iGdfjLIqNZfmH4ABhuLqOqGGWv99VI/bOFb1dvNPPGfYpcH9eBcFBO6RCz94
9i0=
-----END CERTIFICATE-----
