Certificate:
    Data:
        Version: 3 (0x2)
        Serial Number: 4099 (0x1003)
    Signature Algorithm: sha256WithRSAEncryption
        Issuer: O=NodeOPCUA, CN=NodeOPCUA
        Validity
            Not Before: Dec 29 20:46:09 2016 GMT
            Not After : Dec 29 20:46:09 2017 GMT
        Subject: O=NodeOPCUA, CN=NodeOPCUA
        Subject Public Key Info:
            Public Key Algorithm: rsaEncryption
                Public-Key: (2048 bit)
                Modulus:
                    00:c9:41:e1:54:73:6f:b0:45:5b:c8:eb:25:6a:fc:
                    55:53:b4:96:ff:7f:52:ac:7b:6f:df:9f:ac:2d:fe:
                    e9:f6:fb:80:74:91:85:4d:01:31:65:0a:cd:2e:a2:
                    f7:56:26:26:cd:54:d3:0a:d9:7b:52:28:c5:8f:a4:
                    b2:e6:5a:10:34:53:fb:22:eb:68:4d:97:62:9b:56:
                    9a:41:35:5c:bc:d8:56:82:71:1a:39:b3:8b:c8:f2:
                    58:20:d9:12:d6:81:00:bf:ad:6c:f0:25:02:83:f0:
                    2e:b0:bc:4f:66:65:a0:39:13:a5:1a:8f:d7:ff:6c:
                    9e:b2:87:6f:a6:d1:c3:65:9a:5c:68:b5:65:62:31:
                    7b:8c:19:2f:0c:8a:0d:cf:7b:25:3b:eb:f5:ae:78:
                    1c:cc:4f:90:ef:cd:e6:70:49:72:d2:60:a2:44:24:
                    66:8a:c6:66:5c:5e:ce:ce:7e:d5:d2:dd:31:4d:19:
                    6d:18:0b:d5:9c:74:a3:e7:aa:9e:5a:d1:7c:d9:82:
                    00:72:e6:98:7f:a7:2c:52:da:90:89:4a:da:18:3f:
                    a9:0a:b9:4d:da:76:e5:78:13:3d:2b:04:90:c7:73:
                    39:7b:b4:69:04:a1:d8:89:d6:7f:01:4e:63:ed:f2:
                    fd:46:ab:2f:b3:df:bf:1f:3c:14:81:f9:2b:3d:fa:
                    86:87
                Exponent: 65537 (0x10001)
        X509v3 extensions:
            X509v3 Basic Constraints: critical
                CA:FALSE
            X509v3 Subject Key Identifier: 
                70:22:C9:B7:4F:17:1E:8B:18:82:82:E1:EC:00:88:F9:97:81:37:52
            X509v3 Authority Key Identifier: 
                keyid:70:22:C9:B7:4F:17:1E:8B:18:82:82:E1:EC:00:88:F9:97:81:37:52
                DirName:/O=NodeOPCUA/CN=NodeOPCUA
                serial:10:03

            X509v3 Subject Alternative Name: 
                URI:urn:giless-MBP.home:NodeOPCUA-Client, DNS:localhost, DNS:giless-MBP.home
            Netscape Comment: 
                OpenSSL Generated Certificate
            X509v3 Key Usage: critical
                Digital Signature, Non Repudiation, Key Encipherment, Data Encipherment, Key Agreement, Certificate Sign
            X509v3 Extended Key Usage: critical
                TLS Web Server Authentication, TLS Web Client Authentication
    Signature Algorithm: sha256WithRSAEncryption
         8a:83:b0:d5:bf:32:2b:46:ba:6c:80:db:2a:13:21:39:34:3c:
         38:e2:db:4b:c0:91:41:cd:06:f9:f6:39:27:09:2e:30:16:f0:
         d7:2b:6b:ac:fa:40:35:46:f8:aa:fa:0c:c9:08:a9:06:6a:d7:
         7a:ce:ef:45:46:47:51:79:c1:bf:9d:05:06:9a:0c:91:63:8e:
         7b:ad:f4:37:64:1a:3b:09:ac:f9:e4:ef:e0:b5:ca:b2:12:48:
         17:11:2a:4b:31:8c:a3:26:a4:7b:4f:de:38:5c:30:47:b3:95:
         52:69:b8:88:34:c9:dd:d1:21:0f:8d:86:a7:b0:fc:bd:b3:cc:
         17:27:43:b7:ed:3a:03:b7:30:a3:c6:68:a3:0e:13:fb:5c:be:
         09:d0:94:55:a8:65:6e:38:82:96:1f:1d:08:2b:fd:5b:1f:45:
         68:ea:12:fa:cd:c5:42:d4:eb:37:26:d3:8e:29:d6:e1:21:b0:
         84:d4:1f:16:a7:0c:a8:93:02:39:46:04:86:85:3f:8d:07:de:
         14:6a:ba:49:96:9a:79:e9:66:c9:19:72:ef:b7:83:fd:ae:92:
         21:1a:a7:22:27:a5:3f:c2:da:e0:14:c1:b8:11:a6:7e:f1:f6:
         71:40:46:f1:0c:e1:85:2f:5d:76:b1:7f:dd:b3:eb:88:cf:7f:
         be:60:cc:53
-----BEGIN CERTIFICATE-----
MIIEAzCCAuugAwIBAgICEAMwDQYJKoZIhvcNAQELBQAwKDESMBAGA1UEChMJTm9k
ZU9QQ1VBMRIwEAYDVQQDEwlOb2RlT1BDVUEwIhgPMjAxNjEyMjkyMDQ2MDlaGA8y
MDE3MTIyOTIwNDYwOVowKDESMBAGA1UEChMJTm9kZU9QQ1VBMRIwEAYDVQQDEwlO
b2RlT1BDVUEwggEiMA0GCSqGSIb3DQEBAQUAA4IBDwAwggEKAoIBAQDJQeFUc2+w
RVvI6yVq/FVTtJb/f1Kse2/fn6wt/un2+4B0kYVNATFlCs0uovdWJibNVNMK2XtS
KMWPpLLmWhA0U/si62hNl2KbVppBNVy82FaCcRo5s4vI8lgg2RLWgQC/rWzwJQKD
8C6wvE9mZaA5E6Uaj9f/bJ6yh2+m0cNlmlxotWViMXuMGS8Mig3PeyU76/WueBzM
T5DvzeZwSXLSYKJEJGaKxmZcXs7OftXS3TFNGW0YC9WcdKPnqp5a0XzZggBy5ph/
pyxS2pCJStoYP6kKuU3aduV4Ez0rBJDHczl7tGkEodiJ1n8BTmPt8v1Gqy+z378f
PBSB+Ss9+oaHAgMBAAGjggExMIIBLTAMBgNVHRMBAf8EAjAAMB0GA1UdDgQWBBRw
Ism3TxceixiCguHsAIj5l4E3UjBRBgNVHSMESjBIgBRwIsm3TxceixiCguHsAIj5
l4E3UqEspCowKDESMBAGA1UEChMJTm9kZU9QQ1VBMRIwEAYDVQQDEwlOb2RlT1BD
VUGCAhADMEsGA1UdEQREMEKGJHVybjpnaWxlc3MtTUJQLmhvbWU6Tm9kZU9QQ1VB
LUNsaWVudIIJbG9jYWxob3N0gg9naWxlc3MtTUJQLmhvbWUwLAYJYIZIAYb4QgEN
BB8WHU9wZW5TU0wgR2VuZXJhdGVkIENlcnRpZmljYXRlMA4GA1UdDwEB/wQEAwIC
/DAgBgNVHSUBAf8EFjAUBggrBgEFBQcDAQYIKwYBBQUHAwIwDQYJKoZIhvcNAQEL
BQADggEBAIqDsNW/MitGumyA2yoTITk0PDji20vAkUHNBvn2OScJLjAW8Ncra6z6
QDVG+Kr6DMkIqQZq13rO70VGR1F5wb+dBQaaDJFjjnut9DdkGjsJrPnk7+C1yrIS
SBcRKksxjKMmpHtP3jhcMEezlVJpuIg0yd3RIQ+Nhqew/L2zzBcnQ7ftOgO3MKPG
aKMOE/tcvgnQlFWoZW44gpYfHQgr/VsfRWjqEvrNxULU6zcm044p1uEhsITUHxan
DKiTAjlGBIaFP40H3hRqukmWmnnpZskZcu+3g/2ukiEapyInpT/C2uAUwbgRpn7x
9nFARvEM4YUvXXaxf92z64jPf75gzFM=
-----END CERTIFICATE-----
