Certificate:
    Data:
        Version: 3 (0x2)
        Serial Number: 4101 (0x1005)
    Signature Algorithm: sha256WithRSAEncryption
        Issuer: O=NodeOPCUA, CN=NodeOPCUA
        Validity
            Not Before: Dec 29 20:46:09 2016 GMT
            Not After : Dec 29 20:46:09 2017 GMT
        Subject: O=NodeOPCUA, CN=NodeOPCUA
        Subject Public Key Info:
            Public Key Algorithm: rsaEncryption
                Public-Key: (1024 bit)
                Modulus:
                    00:dc:29:05:7c:81:e6:17:72:c7:8b:71:d4:ff:b5:
                    3c:ac:cb:04:ae:a7:d2:b8:0f:0a:3b:9d:2a:ec:57:
                    cd:eb:b5:cf:85:29:95:fd:62:59:3f:2a:c0:2a:a6:
                    e0:ce:c5:6c:f0:61:b8:a8:0e:2a:b2:d3:dc:c8:1a:
                    25:22:96:b1:92:dd:23:ee:eb:26:83:79:53:4b:4f:
                    c6:ca:4c:31:40:e3:5d:ea:6b:7f:b1:05:61:69:4c:
                    d2:f9:61:2c:ae:78:90:4c:de:2c:b0:b7:2e:90:7a:
                    aa:5e:03:35:07:50:ed:0e:aa:02:a6:ca:32:a3:2c:
                    83:36:6a:f5:1d:01:13:06:6f
                Exponent: 65537 (0x10001)
        X509v3 extensions:
            X509v3 Basic Constraints: critical
                CA:FALSE
            X509v3 Subject Key Identifier: 
                A2:31:C5:B9:ED:B0:19:17:25:6D:E4:4A:DA:C2:3A:D5:FE:AC:7E:23
            X509v3 Authority Key Identifier: 
                keyid:A2:31:C5:B9:ED:B0:19:17:25:6D:E4:4A:DA:C2:3A:D5:FE:AC:7E:23
                DirName:/O=NodeOPCUA/CN=NodeOPCUA
                serial:10:05

            X509v3 Subject Alternative Name: 
                URI:urn:giless-MBP.home:NodeOPCUA-Server, DNS:localhost, DNS:giless-MBP.home
            Netscape Comment: 
                OpenSSL Generated Certificate
            X509v3 Key Usage: critical
                Digital Signature, Non Repudiation, Key Encipherment, Data Encipherment, Key Agreement, Certificate Sign
            X509v3 Extended Key Usage: critical
                TLS Web Server Authentication, TLS Web Client Authentication
    Signature Algorithm: sha256WithRSAEncryption
         53:27:d1:25:11:fb:a4:b7:34:31:a6:41:bd:5e:be:02:7e:08:
         d1:60:77:7d:fd:6c:30:e1:5b:40:63:34:b4:32:58:7c:0a:27:
         62:8e:0e:50:08:12:64:d4:71:04:58:e0:00:89:fe:d6:27:98:
         66:78:0d:ab:58:6d:65:68:08:3d:2f:ea:0f:d7:ca:48:66:31:
         6e:bd:09:3b:12:42:8a:2d:ae:ae:11:75:82:b3:d8:ba:57:c2:
         8b:62:ed:e3:f1:2b:99:a2:d1:69:18:e8:4c:d7:e4:79:3b:52:
         eb:02:85:b3:aa:d6:df:6d:ce:0a:05:57:89:4e:20:4a:24:75:
         74:32
-----BEGIN CERTIFICATE-----
MIIC/jCCAmegAwIBAgICEAUwDQYJKoZIhvcNAQELBQAwKDESMBAGA1UEChMJTm9k
ZU9QQ1VBMRIwEAYDVQQDEwlOb2RlT1BDVUEwIhgPMjAxNjEyMjkyMDQ2MDlaGA8y
MDE3MTIyOTIwNDYwOVowKDESMBAGA1UEChMJTm9kZU9QQ1VBMRIwEAYDVQQDEwlO
b2RlT1BDVUEwgZ8wDQYJKoZIhvcNAQEBBQADgY0AMIGJAoGBANwpBXyB5hdyx4tx
1P+1PKzLBK6n0rgPCjudKuxXzeu1z4Uplf1iWT8qwCqm4M7FbPBhuKgOKrLT3Mga
JSKWsZLdI+7rJoN5U0tPxspMMUDjXeprf7EFYWlM0vlhLK54kEzeLLC3LpB6ql4D
NQdQ7Q6qAqbKMqMsgzZq9R0BEwZvAgMBAAGjggExMIIBLTAMBgNVHRMBAf8EAjAA
MB0GA1UdDgQWBBSiMcW57bAZFyVt5ErawjrV/qx+IzBRBgNVHSMESjBIgBSiMcW5
7bAZFyVt5ErawjrV/qx+I6EspCowKDESMBAGA1UEChMJTm9kZU9QQ1VBMRIwEAYD
VQQDEwlOb2RlT1BDVUGCAhAFMEsGA1UdEQREMEKGJHVybjpnaWxlc3MtTUJQLmhv
bWU6Tm9kZU9QQ1VBLVNlcnZlcoIJbG9jYWxob3N0gg9naWxlc3MtTUJQLmhvbWUw
LAYJYIZIAYb4QgENBB8WHU9wZW5TU0wgR2VuZXJhdGVkIENlcnRpZmljYXRlMA4G
A1UdDwEB/wQEAwIC/DAgBgNVHSUBAf8EFjAUBggrBgEFBQcDAQYIKwYBBQUHAwIw
DQYJKoZIhvcNAQELBQADgYEAUyfRJRH7pLc0MaZBvV6+An4I0WB3ff1sMOFbQGM0
tDJYfAonYo4OUAgSZNRxBFjgAIn+1ieYZngNq1htZWgIPS/qD9fKSGYxbr0JOxJC
ii2urhF1grPYulfCi2Lt4/ErmaLRaRjoTNfkeTtS6wKFs6rW323OCgVXiU4gSiR1
dDI=
-----END CERTIFICATE-----
