Certificate:
    Data:
        Version: 3 (0x2)
        Serial Number: 4105 (0x1009)
    Signature Algorithm: sha256WithRSAEncryption
        Issuer: O=NodeOPCUA, CN=NodeOPCUA
        Validity
            Not Before: Dec 29 20:46:09 2016 GMT
            Not After : Dec 29 20:46:09 2017 GMT
        Subject: O=NodeOPCUA, CN=NodeOPCUA
        Subject Public Key Info:
            Public Key Algorithm: rsaEncryption
                Public-Key: (1024 bit)
                Modulus:
                    00:c0:69:d1:58:50:dd:d9:09:5a:ff:d5:77:c7:15:
                    b7:86:1c:0f:72:18:8f:b2:99:b8:7b:dd:9c:73:27:
                    6d:db:7a:11:c5:2e:c2:fc:d8:b4:33:68:e0:cf:d2:
                    d3:12:cb:f6:f6:07:18:af:57:a1:b4:1a:c2:a1:48:
                    62:c5:9e:b0:ae:8c:36:04:2d:30:c8:ad:56:28:8c:
                    6d:5a:10:bd:fe:35:f7:a1:d5:26:af:4b:01:d4:8f:
                    7d:82:a6:ac:8b:b8:bc:67:d2:8c:44:81:29:9c:1c:
                    23:e0:bd:6d:71:69:1a:89:03:69:90:a8:3f:9a:37:
                    0a:84:c4:44:4e:62:77:fb:59
                Exponent: 65537 (0x10001)
        X509v3 extensions:
            X509v3 Basic Constraints: critical
                CA:FALSE
            X509v3 Subject Key Identifier: 
                59:7B:6C:FB:0D:CA:D6:28:F8:5D:13:4E:FC:34:9B:99:4C:93:E5:D7
            X509v3 Authority Key Identifier: 
                keyid:59:7B:6C:FB:0D:CA:D6:28:F8:5D:13:4E:FC:34:9B:99:4C:93:E5:D7
                DirName:/O=NodeOPCUA/CN=NodeOPCUA
                serial:10:09

            X509v3 Subject Alternative Name: 
                URI:urn:giless-MBP.home:NodeOPCUA-DiscoveryServer, DNS:localhost, DNS:giless-MBP.home
            Netscape Comment: 
                OpenSSL Generated Certificate
            X509v3 Key Usage: critical
                Digital Signature, Non Repudiation, Key Encipherment, Data Encipherment, Key Agreement, Certificate Sign
            X509v3 Extended Key Usage: critical
                TLS Web Server Authentication, TLS Web Client Authentication
    Signature Algorithm: sha256WithRSAEncryption
         8e:dd:ad:fc:2d:48:7f:cf:2d:48:93:f6:17:65:e3:04:23:b6:
         de:1a:7a:f5:93:d3:4b:4d:ed:0f:47:25:a1:be:5f:a3:c3:32:
         16:c8:3c:6a:74:cc:e8:70:1e:30:c1:c3:8d:56:1d:f6:73:85:
         4c:b4:80:bd:3c:15:7e:0d:ea:fb:a9:cc:47:ea:ec:f6:d5:4c:
         81:59:25:7e:4d:33:8b:88:45:cf:94:88:1a:af:6a:e7:75:da:
         3b:ce:c4:41:c3:cf:58:02:e5:e9:57:72:e3:ba:c4:72:4a:83:
         3f:8c:94:01:42:19:6a:0f:c9:f6:71:00:e6:a6:ad:11:e8:78:
         e5:c0
-----BEGIN CERTIFICATE-----
MIIDBzCCAnCgAwIBAgICEAkwDQYJKoZIhvcNAQELBQAwKDESMBAGA1UEChMJTm9k
ZU9QQ1VBMRIwEAYDVQQDEwlOb2RlT1BDVUEwIhgPMjAxNjEyMjkyMDQ2MDlaGA8y
MDE3MTIyOTIwNDYwOVowKDESMBAGA1UEChMJTm9kZU9QQ1VBMRIwEAYDVQQDEwlO
b2RlT1BDVUEwgZ8wDQYJKoZIhvcNAQEBBQADgY0AMIGJAoGBAMBp0VhQ3dkJWv/V
d8cVt4YcD3IYj7KZuHvdnHMnbdt6EcUuwvzYtDNo4M/S0xLL9vYHGK9XobQawqFI
YsWesK6MNgQtMMitViiMbVoQvf4196HVJq9LAdSPfYKmrIu4vGfSjESBKZwcI+C9
bXFpGokDaZCoP5o3CoTERE5id/tZAgMBAAGjggE6MIIBNjAMBgNVHRMBAf8EAjAA
MB0GA1UdDgQWBBRZe2z7DcrWKPhdE078NJuZTJPl1zBRBgNVHSMESjBIgBRZe2z7
DcrWKPhdE078NJuZTJPl16EspCowKDESMBAGA1UEChMJTm9kZU9QQ1VBMRIwEAYD
VQQDEwlOb2RlT1BDVUGCAhAJMFQGA1UdEQRNMEuGLXVybjpnaWxlc3MtTUJQLmhv
bWU6Tm9kZU9QQ1VBLURpc2NvdmVyeVNlcnZlcoIJbG9jYWxob3N0gg9naWxlc3Mt
TUJQLmhvbWUwLAYJYIZIAYb4QgENBB8WHU9wZW5TU0wgR2VuZXJhdGVkIENlcnRp
ZmljYXRlMA4GA1UdDwEB/wQEAwIC/DAgBgNVHSUBAf8EFjAUBggrBgEFBQcDAQYI
KwYBBQUHAwIwDQYJKoZIhvcNAQELBQADgYEAjt2t/C1If88tSJP2F2XjBCO23hp6
9ZPTS03tD0clob5fo8MyFsg8anTM6HAeMMHDjVYd9nOFTLSAvTwVfg3q+6nMR+rs
9tVMgVklfk0zi4hFz5SIGq9q53XaO87EQcPPWALl6Vdy47rEckqDP4yUAUIZag/J
9nEA5qatEeh45cA=
-----END CERTIFICATE-----
