Certificate:
    Data:
        Version: 3 (0x2)
        Serial Number: 4106 (0x100a)
    Signature Algorithm: sha256WithRSAEncryption
        Issuer: C=FR, ST=IDF, L=Paris, O=Local NODE-OPCUA Certificate Authority, CN=NodeOPCUA
        Validity
            Not Before: Dec 29 20:46:09 2016 GMT
            Not After : Dec 29 20:46:09 2017 GMT
        Subject: C=FR, O=NodeOPCUA, CN=NodeOPCUA
        Subject Public Key Info:
            Public Key Algorithm: rsaEncryption
                Public-Key: (2048 bit)
                Modulus:
                    00:d1:93:a3:25:9d:dd:7c:9b:95:c7:73:23:49:42:
                    01:0f:ca:a1:d1:38:94:59:89:fc:25:12:d4:80:8a:
                    1b:b8:1a:8c:cb:52:13:59:a5:03:6a:57:31:50:01:
                    e1:e0:bd:0e:a3:ad:93:7c:ac:0b:d0:00:fa:88:ad:
                    61:29:3b:f4:c0:b2:e9:79:17:c1:fd:52:f4:79:c7:
                    b0:64:5c:ad:34:d1:22:10:9c:79:9f:41:c5:47:99:
                    8d:d3:34:1d:13:55:55:45:a2:37:f4:56:c4:f5:2f:
                    3b:e8:60:93:09:ca:1c:ae:2e:72:1e:a0:d5:69:4c:
                    37:b8:e4:9f:b4:c4:48:ab:41:8f:be:e0:b4:c9:26:
                    2f:b0:65:9d:59:8c:36:01:7e:04:44:53:6f:a4:88:
                    97:7c:69:0d:49:9e:fb:33:5c:29:49:bf:98:bd:13:
                    55:7d:ae:75:7e:74:d0:e9:c2:bc:91:a9:a9:8a:3b:
                    ab:41:47:0f:38:ad:20:06:cd:fd:c8:61:b0:16:ff:
                    c6:44:77:63:73:c9:82:15:58:27:bd:53:33:d3:43:
                    67:89:f2:4a:4e:8f:85:78:e5:8a:87:88:99:46:c8:
                    42:17:a4:7c:ea:68:75:69:60:11:70:54:b6:d9:e7:
                    95:49:6e:b3:bf:d9:fb:e8:7f:fe:c6:5e:5a:e3:7f:
                    01:07
                Exponent: 65537 (0x10001)
        X509v3 extensions:
            X509v3 Basic Constraints: critical
                CA:FALSE
            X509v3 Subject Key Identifier: 
                ED:85:75:1C:A5:80:6B:CC:8B:C7:84:58:6C:83:47:28:F0:5D:63:3A
            X509v3 Authority Key Identifier: 
                keyid:05:4E:62:F0:DE:FF:5B:94:12:4F:3D:C6:75:65:74:CB:D6:B5:98:37
                DirName:/C=FR/ST=IDF/L=Paris/O=Local NODE-OPCUA Certificate Authority/CN=NodeOPCUA
                serial:B9:04:BD:F8:25:D1:04:6E

            X509v3 Subject Alternative Name: 
                URI:urn:giless-MBP.home:NodeOPCUA-DiscoveryServer, DNS:localhost, DNS:giless-MBP.home
            Netscape Comment: 
                OpenSSL Generated Certificate
            X509v3 Key Usage: critical
                Digital Signature, Non Repudiation, Key Encipherment, Data Encipherment, Key Agreement, Certificate Sign
            X509v3 Extended Key Usage: critical
                TLS Web Server Authentication, TLS Web Client Authentication
    Signature Algorithm: sha256WithRSAEncryption
         7a:45:7a:00:98:83:34:aa:23:11:d4:ae:e7:19:20:88:6b:a1:
         10:af:1b:4d:b8:67:4f:7e:6b:69:e1:5d:eb:b6:66:8e:de:aa:
         14:9b:de:65:48:c7:3d:18:7b:ac:94:d5:05:59:bf:57:df:c9:
         96:3d:3d:1d:ae:8c:ff:65:60:0e:a8:49:1b:a6:af:b8:20:9c:
         1c:93:4d:db:68:61:96:3c:d8:61:f6:d3:f2:0e:a7:77:56:67:
         c1:ed:d0:39:3a:a3:a9:b3:d1:91:f7:d7:0f:27:77:c1:13:b6:
         a5:b6:af:48:e8:95:cd:45:d9:75:3c:4c:58:a5:d0:2b:48:8b:
         a9:5c:44:ec:8f:0c:4a:97:ce:d5:54:71:48:1a:53:df:46:89:
         f8:92:fc:ce:84:82:a6:74:70:5e:4e:28:92:99:b2:02:9c:26:
         b7:00:a8:f8:c8:51:9f:17:66:cf:6d:84:35:82:2f:a5:3f:f2:
         f9:19:d9:c8:5b:44:3f:25:0f:e0:53:ff:27:e1:73:b9:f1:84:
         74:37:56:75:39:e9:cc:21:ad:a6:f3:5b:a6:dd:a2:c4:18:fd:
         20:fe:7f:0c:2a:56:c6:c2:02:ef:e2:65:a9:ab:51:ff:18:5e:
         67:53:ea:4d:82:bf:13:46:79:ac:6b:ba:d8:54:93:89:ec:a4:
         b5:8c:02:26
-----BEGIN CERTIFICATE-----
MIIEszCCA5ugAwIBAgICEAowDQYJKoZIhvcNAQELBQAwcDELMAkGA1UEBhMCRlIx
DDAKBgNVBAgTA0lERjEOMAwGA1UEBxMFUGFyaXMxLzAtBgNVBAoTJkxvY2FsIE5P
REUtT1BDVUEgQ2VydGlmaWNhdGUgQXV0aG9yaXR5MRIwEAYDVQQDEwlOb2RlT1BD
VUEwIhgPMjAxNjEyMjkyMDQ2MDlaGA8yMDE3MTIyOTIwNDYwOVowNTELMAkGA1UE
BhMCRlIxEjAQBgNVBAoMCU5vZGVPUENVQTESMBAGA1UEAwwJTm9kZU9QQ1VBMIIB
IjANBgkqhkiG9w0BAQEFAAOCAQ8AMIIBCgKCAQEA0ZOjJZ3dfJuVx3MjSUIBD8qh
0TiUWYn8JRLUgIobuBqMy1ITWaUDalcxUAHh4L0Oo62TfKwL0AD6iK1hKTv0wLLp
eRfB/VL0ecewZFytNNEiEJx5n0HFR5mN0zQdE1VVRaI39FbE9S876GCTCcocri5y
HqDVaUw3uOSftMRIq0GPvuC0ySYvsGWdWYw2AX4ERFNvpIiXfGkNSZ77M1wpSb+Y
vRNVfa51fnTQ6cK8kampijurQUcPOK0gBs39yGGwFv/GRHdjc8mCFVgnvVMz00Nn
ifJKTo+FeOWKh4iZRshCF6R86mh1aWARcFS22eeVSW6zv9n76H/+xl5a438BBwID
AQABo4IBjDCCAYgwDAYDVR0TAQH/BAIwADAdBgNVHQ4EFgQU7YV1HKWAa8yLx4RY
bINHKPBdYzowgaIGA1UdIwSBmjCBl4AUBU5i8N7/W5QSTz3GdWV0y9a1mDehdKRy
MHAxCzAJBgNVBAYTAkZSMQwwCgYDVQQIEwNJREYxDjAMBgNVBAcTBVBhcmlzMS8w
LQYDVQQKEyZMb2NhbCBOT0RFLU9QQ1VBIENlcnRpZmljYXRlIEF1dGhvcml0eTES
MBAGA1UEAxMJTm9kZU9QQ1VBggkAuQS9+CXRBG4wVAYDVR0RBE0wS4YtdXJuOmdp
bGVzcy1NQlAuaG9tZTpOb2RlT1BDVUEtRGlzY292ZXJ5U2VydmVygglsb2NhbGhv
c3SCD2dpbGVzcy1NQlAuaG9tZTAsBglghkgBhvhCAQ0EHxYdT3BlblNTTCBHZW5l
cmF0ZWQgQ2VydGlmaWNhdGUwDgYDVR0PAQH/BAQDAgL8MCAGA1UdJQEB/wQWMBQG
CCsGAQUFBwMBBggrBgEFBQcDAjANBgkqhkiG9w0BAQsFAAOCAQEAekV6AJiDNKoj
EdSu5xkgiGuhEK8bTbhnT35raeFd67Zmjt6qFJveZUjHPRh7rJTVBVm/V9/Jlj09
Ha6M/2VgDqhJG6avuCCcHJNN22hhljzYYfbT8g6nd1Znwe3QOTqjqbPRkffXDyd3
wRO2pbavSOiVzUXZdTxMWKXQK0iLqVxE7I8MSpfO1VRxSBpT30aJ+JL8zoSCpnRw
Xk4okpmyApwmtwCo+MhRnxdmz22ENYIvpT/y+RnZyFtEPyUP4FP/J+FzufGEdDdW
dTnpzCGtpvNbpt2ixBj9IP5/DCpWxsIC7+JlqatR/xheZ1PqTYK/E0Z5rGu62FST
ieyktYwCJg==
-----END CERTIFICATE-----
